
SD_Card_Reader_USBMS.elf:     file format elf32-littleriscv
SD_Card_Reader_USBMS.elf
architecture: riscv:rv32, flags 0x00000112:
EXEC_P, HAS_SYMS, D_PAGED
start address 0x00000000

Program Header:
    LOAD off    0x00001000 vaddr 0x00000000 paddr 0x00000000 align 2**12
         filesz 0x0000428c memsz 0x0000428c flags r-x
    LOAD off    0x00006000 vaddr 0x20000000 paddr 0x0000428c align 2**12
         filesz 0x00000190 memsz 0x000006a8 flags rw-
    LOAD off    0x00006800 vaddr 0x20004800 paddr 0x20004800 align 2**12
         filesz 0x00000000 memsz 0x00000800 flags rw-

Sections:
Idx Name          Size      VMA       LMA       File off  Algn
  0 .init         00000004  00000000  00000000  00001000  2**1
                  CONTENTS, ALLOC, LOAD, READONLY, CODE
  1 .vector       000000fc  00000004  00000004  00001004  2**1
                  CONTENTS, ALLOC, LOAD, READONLY, CODE
  2 .text         0000418c  00000100  00000100  00001100  2**2
                  CONTENTS, ALLOC, LOAD, READONLY, CODE
  3 .fini         00000000  0000428c  0000428c  00006190  2**0
                  CONTENTS, ALLOC, LOAD, CODE
  4 .dalign       00000000  20000000  20000000  00006190  2**0
                  CONTENTS
  5 .dlalign      00000000  0000428c  0000428c  00006190  2**0
                  CONTENTS
  6 .data         00000190  20000000  0000428c  00006000  2**2
                  CONTENTS, ALLOC, LOAD, DATA
  7 .bss          00000518  20000190  0000441c  00006190  2**2
                  ALLOC
  8 .stack        00000800  20004800  20004800  00006800  2**0
                  ALLOC
  9 .debug_info   0001a651  00000000  00000000  00006190  2**0
                  CONTENTS, READONLY, DEBUGGING
 10 .debug_abbrev 00004956  00000000  00000000  000207e1  2**0
                  CONTENTS, READONLY, DEBUGGING
 11 .debug_loc    00004a1b  00000000  00000000  00025137  2**0
                  CONTENTS, READONLY, DEBUGGING
 12 .debug_aranges 00000a20  00000000  00000000  00029b58  2**3
                  CONTENTS, READONLY, DEBUGGING
 13 .debug_ranges 00000d18  00000000  00000000  0002a578  2**3
                  CONTENTS, READONLY, DEBUGGING
 14 .debug_line   0000ff46  00000000  00000000  0002b290  2**0
                  CONTENTS, READONLY, DEBUGGING
 15 .debug_str    000034c6  00000000  00000000  0003b1d6  2**0
                  CONTENTS, READONLY, DEBUGGING
 16 .comment      00000033  00000000  00000000  0003e69c  2**0
                  CONTENTS, READONLY
 17 .debug_frame  00001ff0  00000000  00000000  0003e6d0  2**2
                  CONTENTS, READONLY, DEBUGGING
 18 .stab         00000084  00000000  00000000  000406c0  2**2
                  CONTENTS, READONLY, DEBUGGING
 19 .stabstr      00000117  00000000  00000000  00040744  2**0
                  CONTENTS, READONLY, DEBUGGING
SYMBOL TABLE:
00000000 l    d  .init	00000000 .init
00000004 l    d  .vector	00000000 .vector
00000100 l    d  .text	00000000 .text
0000428c l    d  .fini	00000000 .fini
20000000 l    d  .dalign	00000000 .dalign
0000428c l    d  .dlalign	00000000 .dlalign
20000000 l    d  .data	00000000 .data
20000190 l    d  .bss	00000000 .bss
20004800 l    d  .stack	00000000 .stack
00000000 l    d  .debug_info	00000000 .debug_info
00000000 l    d  .debug_abbrev	00000000 .debug_abbrev
00000000 l    d  .debug_loc	00000000 .debug_loc
00000000 l    d  .debug_aranges	00000000 .debug_aranges
00000000 l    d  .debug_ranges	00000000 .debug_ranges
00000000 l    d  .debug_line	00000000 .debug_line
00000000 l    d  .debug_str	00000000 .debug_str
00000000 l    d  .comment	00000000 .comment
00000000 l    d  .debug_frame	00000000 .debug_frame
00000000 l    d  .stab	00000000 .stab
00000000 l    d  .stabstr	00000000 .stabstr
00000000 l    df *ABS*	00000000 ./Startup/startup_ch32v20x_D6.o
00000004 l       .vector	00000000 _vector_base
00000000 l    df *ABS*	00000000 usb_core.c
000002d6 l     F .text	000000ae DataStageIn
00000000 l    df *ABS*	00000000 usb_init.c
00000000 l    df *ABS*	00000000 usb_int.c
00000000 l    df *ABS*	00000000 usb_mem.c
00000000 l    df *ABS*	00000000 usb_regs.c
00000000 l    df *ABS*	00000000 usb_sil.c
00000000 l    df *ABS*	00000000 hw_config.c
00000000 l    df *ABS*	00000000 usb_endp.c
00000000 l    df *ABS*	00000000 usb_istr.c
00000000 l    df *ABS*	00000000 usb_prop.c
00000000 l    df *ABS*	00000000 usb_pwr.c
00000000 l    df *ABS*	00000000 SPI_SD.c
00001abe l     F .text	00000022 SD_SPI_RW
00001ae0 l     F .text	00000076 SD_SendCmd
00001b56 l     F .text	00000050 SD_SPI_ReInit
00001ba6 l     F .text	0000005c SD_ReadDataBlock
200001cc l     O .bss	00000001 s_is_sdhc
200001d0 l     O .bss	00000004 s_sector_count
20000168 l     O .data	00000002 s_sector_size
00000000 l    df *ABS*	00000000 SW_UDISK.c
20000284 l     O .bss	00000200 SD_RD_BUF
20000484 l     O .bss	00000200 SD_WR_BUF
00000000 l    df *ABS*	00000000 ch32v20x_it.c
00000000 l    df *ABS*	00000000 main.c
00000000 l    df *ABS*	00000000 system_ch32v20x.c
00000000 l    df *ABS*	00000000 ch32v20x_exti.c
00000000 l    df *ABS*	00000000 ch32v20x_gpio.c
00000000 l    df *ABS*	00000000 ch32v20x_misc.c
00000000 l    df *ABS*	00000000 ch32v20x_rcc.c
200000e0 l     O .data	00000010 APBAHBPrescTable
20000170 l     O .data	00000004 ADCPrescTable
00000000 l    df *ABS*	00000000 ch32v20x_spi.c
00000000 l    df *ABS*	00000000 ch32v20x_usart.c
00000000 l    df *ABS*	00000000 debug.c
200001fc l     O .bss	00000002 p_ms
200001fe l     O .bss	00000001 p_us
20000174 l     O .data	00000004 curbrk.4672
00000000 l    df *ABS*	00000000 memcpy.c
00000000 l    df *ABS*	00000000 printf.c
00000000 l    df *ABS*	00000000 puts.c
00000000 l    df *ABS*	00000000 wbuf.c
00000000 l    df *ABS*	00000000 wsetup.c
00000000 l    df *ABS*	00000000 fflush.c
00000000 l    df *ABS*	00000000 findfp.c
0000332a l     F .text	00000066 std
00000000 l    df *ABS*	00000000 fwalk.c
00000000 l    df *ABS*	00000000 makebuf.c
00000000 l    df *ABS*	00000000 nano-mallocr.c
00000000 l    df *ABS*	00000000 nano-mallocr.c
00000000 l    df *ABS*	00000000 nano-vfprintf.c
000037bc l     F .text	00000028 __sfputc_r
00000000 l    df *ABS*	00000000 nano-vfprintf_i.c
00000000 l    df *ABS*	00000000 sbrkr.c
00000000 l    df *ABS*	00000000 stdio.c
00000000 l    df *ABS*	00000000 writer.c
00000000 l    df *ABS*	00000000 closer.c
00000000 l    df *ABS*	00000000 fstatr.c
00000000 l    df *ABS*	00000000 isattyr.c
00000000 l    df *ABS*	00000000 lseekr.c
00000000 l    df *ABS*	00000000 memchr.c
00000000 l    df *ABS*	00000000 mlock.c
00000000 l    df *ABS*	00000000 readr.c
00000000 l    df *ABS*	00000000 close.c
00000000 l    df *ABS*	00000000 fstat.c
00000000 l    df *ABS*	00000000 isatty.c
00000000 l    df *ABS*	00000000 lseek.c
00000000 l    df *ABS*	00000000 read.c
00000000 l    df *ABS*	00000000 usb_desc.c
00000000 l    df *ABS*	00000000 impure.c
200000f0 l     O .data	00000060 impure_data
00000000 l    df *ABS*	00000000 reent.c
00000faa g     F .text	00000042 SetEPRxValid
200001a6 g     O .bss	00000002 SaveRState
00002884  w      .text	00000000 EXTI2_IRQHandler
000024ae g     F .text	000000aa UDISK_Up_OnePack
00003fb0 g     F .text	00000028 _isatty_r
0000119c g     F .text	00000022 GetEPRxCount
00002efc g     F .text	000000d4 _puts_r
200001c8 g     O .bss	00000004 remotewakeupon
00003fd8 g     F .text	0000002c _lseek_r
00000530 g     F .text	000000ba Standard_SetEndPointFeature
00002ebc g     F .text	00000040 printf
00000ab0 g     F .text	00000032 USB_Init
20000950 g       .data	00000000 __global_pointer$
00000108 g     F .text	00000028 .hidden __riscv_save_8
00002884  w      .text	00000000 TIM1_CC_IRQHandler
000011be g     F .text	0000000e ByteSwap
00003efa g     F .text	00000030 __sseek
000033e0 g     F .text	0000006c __sinit
00002fdc g     F .text	000000bc __swbuf_r
000026ac g     F .text	00000010 HardFault_Handler
0000339a g     F .text	00000046 __sfmoreglue
0000401e g     F .text	00000002 __malloc_unlock
000010c2 g     F .text	0000001c GetEPTxAddr
200001e0 g     O .bss	00000004 Udisk_CBW_Tag_Save
00000154 g     F .text	0000000c .hidden __riscv_restore_3
00002884  w      .text	00000000 SysTick_Handler
00002a78 g     F .text	00000054 NVIC_Init
00002884  w      .text	00000000 PVD_IRQHandler
00002558 g     F .text	00000032 UDISK_In_EP_Deal
00000140 g     F .text	00000020 .hidden __riscv_restore_10
000018f6 g     F .text	00000002 USBD_Status_In
000026aa g     F .text	00000002 NMI_Handler
00002884  w      .text	00000000 EXTI3_IRQHandler
00000108 g     F .text	00000028 .hidden __riscv_save_11
000010fc g     F .text	0000001e SetEPTxCount
0000129e g     F .text	0000001a Enter_LowPowerMode
20000158 g     O .data	00000008 Device_Descriptor
00002ce6 g     F .text	0000000a USART_GetFlagStatus
00003f86 g     F .text	0000002a _fstat_r
200006a4 g     O .bss	00000004 errno
20000190 g       .bss	00000000 _sbss
00000800 g       *ABS*	00000000 __stack_size
00002d4c g     F .text	0000005a USART_Printf_Init
200001f0 g     O .bss	00000004 pEndp2_Buf
0000416c g     O .text	0000000c UDISK_Rd_Format_Capacity
00002884  w      .text	00000000 USBFS_IRQHandler
200001ac g     O .bss	00000002 Ep0RxBlks
00000f0c g     F .text	00000048 SetEPTxStatus
2000001c g     O .data	0000001c pEpInt_OUT
00000154 g     F .text	0000000c .hidden __riscv_restore_2
000005ea g     F .text	0000001c Standard_SetDeviceFeature
000040e0 g     O .text	00000012 USBD_DeviceDescriptor
00002e0a g     F .text	000000b2 memcpy
000012dc g     F .text	00000048 USB_Interrupts_Config
00003390 g     F .text	0000000a _cleanup_r
00002884  w      .text	00000000 EXTI0_IRQHandler
000003f8 g     F .text	00000138 Standard_ClearFeature
00002884  w      .text	00000000 I2C2_EV_IRQHandler
00001214 g     F .text	00000022 USB_SIL_Read
00002fd0 g     F .text	0000000c puts
000013e2 g     F .text	00000026 EP3_OUT_Callback
2000016c g     O .data	00000004 SystemCoreClock
200001b4 g     O .bss	00000004 wCNTR
00000650 g     F .text	000002f0 Setup0_Process
00004058 g     F .text	0000000c _fstat
00000004 g       .init	00000000 _einit
000013d6 g     F .text	0000000c EP2_IN_Callback
00002ba4 g     F .text	0000001e RCC_APB2PeriphClockCmd
00000100 g     F .text	00000030 .hidden __riscv_save_12
00002884  w      .text	00000000 ADC1_2_IRQHandler
00000fec g     F .text	00000026 ClearEP_KIND
00002980 g     F .text	000000f2 GPIO_Init
00002884  w      .text	00000000 Break_Point_Handler
00000140 g     F .text	00000020 .hidden __riscv_restore_11
200001f8 g     O .bss	00000004 NVIC_Priority_Group
00002884  w      .text	00000000 SPI1_IRQHandler
00002cc8 g     F .text	00000016 USART_Cmd
00003e5c g     F .text	0000002a _sbrk_r
200001b8 g     O .bss	00000002 wIstr
00002884  w      .text	00000000 TAMPER_IRQHandler
200001ef g     O .bss	00000001 Udisk_Transfer_Status
00000130 g     F .text	0000000c .hidden __riscv_save_1
200001d8 g     O .bss	00000002 UDISK_Sec_Pack_Count
000020c0 g     F .text	0000034e UDISK_SCSI_CMD_Deal
00000154 g     F .text	0000000c .hidden __riscv_restore_0
00004020 g     F .text	0000002c _read_r
00000116 g     F .text	0000001a .hidden __riscv_save_7
2000019c g     O .bss	00000004 pProperty
00000384 g     F .text	0000002c Standard_SetConfiguration
0000410c g     O .text	0000001a USBD_StringSerial
00002bc2 g     F .text	0000001e RCC_APB1PeriphClockCmd
00002884  w      .text	00000000 Ecall_M_Mode_Handler
20004800 g       .stack	00000000 _heap_end
00001248 g     F .text	00000056 Set_USBConfig
200001b0 g     O .bss	00000004 esof_counter
20000000 g     O .data	0000001c pEpInt_IN
00004064 g     F .text	0000000c _isatty
20000188 g     O .data	00000004 _global_impure_ptr
00004160 g     O .text	0000000c UDISK_Mode_Sense_1A
0000014a g     F .text	00000016 .hidden __riscv_restore_5
000018ca g     F .text	00000028 USBD_GetStringDescriptor
00002884  w      .text	00000000 DMA1_Channel4_IRQHandler
00002de4 g     F .text	00000026 _sbrk
00001ee2 g     F .text	00000072 SD_ReadBlocks
20000196 g     O .bss	00000001 EPindex
20000038 g     O .data	00000030 Device_Property
00000248 g     F .text	0000008e Standard_GetStatus
20000068 g     O .data	00000020 String_Descriptor
000018f2 g     F .text	00000002 USBD_Status_Out
0000101c g     F .text	00000034 ClearDTOG_RX
0000014a g     F .text	00000016 .hidden __riscv_restore_6
00002884  w      .text	00000000 USART3_IRQHandler
00001680 g     F .text	00000058 USBD_init
00002976 g     F .text	0000000a EXTI_ClearITPendingBit
00002884  w      .text	00000000 RTC_IRQHandler
200006a8 g       .bss	00000000 _ebss
00000aae g     F .text	00000002 NOP_Process
00004128 g     O .text	0000000e USBD_StringVendor
00002884  w      .text	00000000 DMA1_Channel7_IRQHandler
0000240e g     F .text	00000050 UDISK_Bulk_UpData
00002030 g     F .text	0000003c UDISK_CMD_Deal_Fail
00002884  w      .text	00000000 CAN1_RX1_IRQHandler
00002cf0 g     F .text	00000026 Delay_Init
000003b0 g     F .text	00000048 Standard_SetInterface
0000111a g     F .text	00000082 SetEPRxCount
00001628 g     F .text	00000010 USBD_Get_Interface_Setting
000011cc g     F .text	00000020 USB_SIL_Init
2000016a g     O .data	00000002 UDISK_Pack_Size
000018f8 g     F .text	0000002a PowerOn
00002884  w      .text	00000000 TIM4_IRQHandler
00000108 g     F .text	00000028 .hidden __riscv_save_9
00000ae2 g     F .text	000003b8 CTR_LP
000041f0 g     O .text	00000020 __sf_fake_stderr
00000116 g     F .text	0000001a .hidden __riscv_save_4
00002884  w      .text	00000000 I2C1_EV_IRQHandler
200001a8 g     O .bss	00000002 SaveTState
000040c0 g     O .text	00000020 USBD_ConfigDescriptor
0000206c g     F .text	00000054 CMD_RD_WR_Deal_Pre
0000245e g     F .text	00000050 UDISK_Up_CSW
00000edc g     F .text	00000010 SetBTABLE
00002ae6 g     F .text	000000be RCC_GetClocksFreq
00002884  w      .text	00000000 DMA1_Channel6_IRQHandler
20000088 g     O .data	00000024 User_Standard_Requests
000037e4 g     F .text	00000042 __sfputs_r
200001ed g     O .bss	00000001 Udisk_Sense_Key
00002884  w      .text	00000000 UART4_IRQHandler
20000164 g     O .data	00000004 fSuspendEnabled
00004004 g     F .text	00000018 memchr
00002c38 g     F .text	00000090 USART_Init
00003640 g     F .text	000000a8 _free_r
00001922 g     F .text	000000ba Suspend
00002884  w      .text	00000000 TIM3_IRQHandler
00002884  w      .text	00000000 RCC_IRQHandler
00000130 g     F .text	0000000c .hidden __riscv_save_3
00001324 g     F .text	000000b2 USB_Port_Set
20000208 g     O .bss	0000001c Device_Info
00002884  w      .text	00000000 TIM1_TRG_COM_IRQHandler
000016d8 g     F .text	000001ce USBD_Reset
00002884  w      .text	00000000 DMA1_Channel1_IRQHandler
00000208 g     F .text	00000020 Standard_GetConfiguration
00000000 g       .init	00000000 _start
200000d0 g     O .data	00000010 AHBPrescTable
00001610 g     F .text	0000000e USBD_SetConfiguration
00004070 g     F .text	0000000c _lseek
200001a0 g     O .bss	00000004 pUser_Standard_Requests
200001e4 g     O .bss	00000001 Udisk_CSW_Status
000011ec g     F .text	00000028 USB_SIL_Write
200001ee g     O .bss	00000001 Udisk_Status
00002884  w      .text	00000000 EXTI15_10_IRQHandler
200001ba g     O .bss	00000001 UDisk_Max_Lun
000018b6 g     F .text	00000014 USBD_GetConfigDescriptor
0000290c g     F .text	0000006a EXTI_Init
00001668 g     F .text	00000004 USBD_NoData_Setup
00001c6c g     F .text	00000276 SD_Init
200001d4 g     O .bss	00000004 UDISK_Cur_Sec_Lba
00000a0a g     F .text	0000004a SetDeviceAddress
00002884  w      .text	00000000 DMA1_Channel8_IRQHandler
00000ebe g     F .text	0000001e PMAToUserBufferCopy
000010a0 g     F .text	00000022 SetEPRxAddr
20000180 g     O .data	00000008 UDISK_Rd_Capacity
200001ae g     O .bss	00000001 bIntPackSOF
00003f5e g     F .text	00000028 _close_r
20000000 g       .dalign	00000000 _data_vma
00000a54 g     F .text	0000005a In0_Process
000019dc g     F .text	0000002c Resume_Init
200001f4 g     O .bss	00000001 MCU_Version
00003098 g     F .text	000000fc __swsetup_r
00002884  w      .text	00000000 EXTI9_5_IRQHandler
0000344c g     F .text	000000a0 __sfp
00000108 g     F .text	00000028 .hidden __riscv_save_10
00003e86 g     F .text	0000002c __sread
20000194 g     O .bss	00000002 StatusInfo
20000198 g     O .bss	00000004 pInformation
00000eec g     F .text	00000020 SetEPType
0000401c g     F .text	00000002 __malloc_lock
00002638 g     F .text	00000072 UDISK_Out_EP_Deal
0000014a g     F .text	00000016 .hidden __riscv_restore_4
00001626 g     F .text	00000002 USBD_SetDeviceFeature
00000140 g     F .text	00000020 .hidden __riscv_restore_8
200001bc g     O .bss	00000008 ResumeS
000032c4 g     F .text	00000066 _fflush_r
00000116 g     F .text	0000001a .hidden __riscv_save_6
00002884  w      .text	00000000 SPI2_IRQHandler
00004210 g     O .text	00000020 __sf_fake_stdin
0000258a g     F .text	000000ae UDISK_Down_OnePack
00000160 g     F .text	000000a8 memset
00000140 g     F .text	00000020 .hidden __riscv_restore_9
0000014a g     F .text	00000016 .hidden __riscv_restore_7
20000224 g     O .bss	00000040 UDisk_EP3_Pack_Buffer
000026bc g     F .text	00000092 main
200000ac g     O .data	00000024 UDISK_Inquity_Tab
00001f54 g     F .text	000000dc SD_WriteBlocks
00000228 g     F .text	00000020 Standard_GetInterface
00003f2a g     F .text	00000006 __sclose
000036e8 g     F .text	000000d4 _malloc_r
00002884  w      .text	00000000 DMA1_Channel5_IRQHandler
00002acc g     F .text	0000001a RCC_USBCLKConfig
00002884  w      .text	00000000 EXTI4_IRQHandler
00002d16 g     F .text	00000036 Delay_Ms
00001242 g     F .text	00000006 USB_LP_CAN1_RX0_IRQHandler
200001dc g     O .bss	00000004 UDISK_Transfer_DataLen
00002c1e g     F .text	0000001a SPI_Cmd
0000274e g     F .text	000000a8 SystemInit
00002ebc g     F .text	00000040 iprintf
200001aa g     O .bss	00000002 USB_Rx_Cnt
00002884  w      .text	00000000 USB_HP_CAN1_TX_IRQHandler
00000000 g       .init	00000000 _sinit
00003f30 g     F .text	0000002e _write_r
00001c02 g     F .text	0000006a SD_Port_Init
00002884  w      .text	00000000 DMA1_Channel3_IRQHandler
200001ec g     O .bss	00000001 Udisk_Sense_ASC
00003aae g     F .text	0000010c _printf_common
20000178 g     O .data	00000004 _impure_ptr
00002884  w      .text	00000000 TIM1_UP_IRQHandler
00003194 g     F .text	00000130 __sflush_r
00000606 g     F .text	00000018 Standard_GetDescriptorData
000018f4 g     F .text	00000002 USBD_ClearFeature
00000940 g     F .text	000000ca Out0_Process
00002884  w      .text	00000000 WWDG_IRQHandler
00002884  w      .text	00000000 Ecall_U_Mode_Handler
000012b8 g     F .text	00000024 Leave_LowPowerMode
00002884  w      .text	00000000 TIM2_IRQHandler
20005000 g       .stack	00000000 _eusrstack
00000130 g     F .text	0000000c .hidden __riscv_save_2
00002884  w      .text	00000000 SW_Handler
00002884  w      .text	00000000 TIM1_BRK_IRQHandler
00003556 g     F .text	00000058 __swhatbuf_r
00002cde g     F .text	00000008 USART_SendData
00002884  w      .text	00000000 EXTI1_IRQHandler
0000161e g     F .text	00000008 USBD_SetDeviceAddress
200001e8 g     O .bss	00000004 Udisk_Capability
2000017c g     O .data	00000004 USBD_StringLangID
00000116 g     F .text	0000001a .hidden __riscv_save_5
00002da6 g     F .text	0000003e _write
20000190 g     O .bss	00000004 Data_Mul_MaxPacketSize
20000190 g       .data	00000000 _edata
200006a8 g       .bss	00000000 _end
0000061e g     F .text	00000032 Post0_Process
00002884  w      .text	00000000 RTCAlarm_IRQHandler
00001408 g     F .text	00000208 USB_Istr
0000428c g       .dlalign	00000000 _data_lma
00000f54 g     F .text	00000056 SetEPRxStatus
20000684 g     O .bss	0000001f mBOC
00002884  w      .text	00000000 USART2_IRQHandler
00003eb2 g     F .text	00000048 __swrite
00003826 g     F .text	00000288 _vfiprintf_r
000034ec g     F .text	0000006a _fwalk_reent
000027f6 g     F .text	0000008e SystemCoreClockUpdate
00001050 g     F .text	00000030 ClearDTOG_TX
20000264 g     O .bss	00000020 EP
00001080 g     F .text	00000020 SetEPTxAddr
00002884  w      .text	00000000 I2C2_ER_IRQHandler
00002884  w      .text	00000000 DMA1_Channel2_IRQHandler
00004230 g     O .text	00000020 __sf_fake_stdout
0000013c g     F .text	00000024 .hidden __riscv_restore_12
000040f4 g     O .text	00000016 USBD_StringProduct
0000407c g     F .text	0000000c _read
00002886  w      .text	00000000 handle_reset
20000150 g     O .data	00000008 Config_Descriptor
00001012 g     F .text	0000000a Clear_Status_Out
00002884  w      .text	00000000 CAN1_SCE_IRQHandler
000018a6 g     F .text	00000010 USBD_GetDeviceDescriptor
00002884  w      .text	00000000 FLASH_IRQHandler
00000130 g     F .text	0000000c .hidden __riscv_save_0
00002884  w      .text	00000000 USBFSWakeUp_IRQHandler
00000e9a g     F .text	00000024 UserToPMABufferCopy
00002884  w      .text	00000000 USART1_IRQHandler
000035ae g     F .text	00000092 __smakebuf_r
00003bba g     F .text	000002a2 _printf_i
20000204 g     O .bss	00000004 __malloc_sbrk_start
00002884  w      .text	00000000 I2C1_ER_IRQHandler
00002be0 g     F .text	0000003e SPI_Init
00002a72 g     F .text	00000006 NVIC_PriorityGroupConfig
200001c4 g     O .bss	00000004 bDeviceState
00001a08 g     F .text	000000b6 Resume
20000160 g     O .data	00000002 Device_Table
20000200 g     O .bss	00000004 __malloc_free_list
00000154 g     F .text	0000000c .hidden __riscv_restore_1
00003826 g     F .text	00000288 _vfprintf_r
0000166c g     F .text	00000014 USBD_UDisk_Get_Max_Lun
00001638 g     F .text	00000030 USBD_Data_Setup
200001a4 g     O .bss	00000002 wInterrupt_Mask
000010de g     F .text	0000001e GetEPRxAddr
00001236 g     F .text	0000000c USBWakeUp_IRQHandler
00004150 g     O .text	00000010 UDISK_Mode_Senese_5A
0000404c g     F .text	0000000c _close



Disassembly of section .init:

00000000 <_sinit>:
   0:	0870206f          	j	2886 <handle_reset>

Disassembly of section .vector:

00000004 <_vector_base>:
	...
   c:	26aa                	lhu	a0,10(a3)
   e:	0000                	unimp
  10:	26ac                	lbu	a1,10(a3)
  12:	0000                	unimp
  14:	0000                	unimp
  16:	0000                	unimp
  18:	2884                	lbu	s1,16(s1)
	...
  22:	0000                	unimp
  24:	2884                	lbu	s1,16(s1)
  26:	0000                	unimp
  28:	2884                	lbu	s1,16(s1)
	...
  32:	0000                	unimp
  34:	2884                	lbu	s1,16(s1)
  36:	0000                	unimp
  38:	0000                	unimp
  3a:	0000                	unimp
  3c:	2884                	lbu	s1,16(s1)
  3e:	0000                	unimp
  40:	0000                	unimp
  42:	0000                	unimp
  44:	2884                	lbu	s1,16(s1)
  46:	0000                	unimp
  48:	2884                	lbu	s1,16(s1)
  4a:	0000                	unimp
  4c:	2884                	lbu	s1,16(s1)
  4e:	0000                	unimp
  50:	2884                	lbu	s1,16(s1)
  52:	0000                	unimp
  54:	2884                	lbu	s1,16(s1)
  56:	0000                	unimp
  58:	2884                	lbu	s1,16(s1)
  5a:	0000                	unimp
  5c:	2884                	lbu	s1,16(s1)
  5e:	0000                	unimp
  60:	2884                	lbu	s1,16(s1)
  62:	0000                	unimp
  64:	2884                	lbu	s1,16(s1)
  66:	0000                	unimp
  68:	2884                	lbu	s1,16(s1)
  6a:	0000                	unimp
  6c:	2884                	lbu	s1,16(s1)
  6e:	0000                	unimp
  70:	2884                	lbu	s1,16(s1)
  72:	0000                	unimp
  74:	2884                	lbu	s1,16(s1)
  76:	0000                	unimp
  78:	2884                	lbu	s1,16(s1)
  7a:	0000                	unimp
  7c:	2884                	lbu	s1,16(s1)
  7e:	0000                	unimp
  80:	2884                	lbu	s1,16(s1)
  82:	0000                	unimp
  84:	2884                	lbu	s1,16(s1)
  86:	0000                	unimp
  88:	2884                	lbu	s1,16(s1)
  8a:	0000                	unimp
  8c:	2884                	lbu	s1,16(s1)
  8e:	0000                	unimp
  90:	2884                	lbu	s1,16(s1)
  92:	0000                	unimp
  94:	1242                	slli	tp,tp,0x30
  96:	0000                	unimp
  98:	2884                	lbu	s1,16(s1)
  9a:	0000                	unimp
  9c:	2884                	lbu	s1,16(s1)
  9e:	0000                	unimp
  a0:	2884                	lbu	s1,16(s1)
  a2:	0000                	unimp
  a4:	2884                	lbu	s1,16(s1)
  a6:	0000                	unimp
  a8:	2884                	lbu	s1,16(s1)
  aa:	0000                	unimp
  ac:	2884                	lbu	s1,16(s1)
  ae:	0000                	unimp
  b0:	2884                	lbu	s1,16(s1)
  b2:	0000                	unimp
  b4:	2884                	lbu	s1,16(s1)
  b6:	0000                	unimp
  b8:	2884                	lbu	s1,16(s1)
  ba:	0000                	unimp
  bc:	2884                	lbu	s1,16(s1)
  be:	0000                	unimp
  c0:	2884                	lbu	s1,16(s1)
  c2:	0000                	unimp
  c4:	2884                	lbu	s1,16(s1)
  c6:	0000                	unimp
  c8:	2884                	lbu	s1,16(s1)
  ca:	0000                	unimp
  cc:	2884                	lbu	s1,16(s1)
  ce:	0000                	unimp
  d0:	2884                	lbu	s1,16(s1)
  d2:	0000                	unimp
  d4:	2884                	lbu	s1,16(s1)
  d6:	0000                	unimp
  d8:	2884                	lbu	s1,16(s1)
  da:	0000                	unimp
  dc:	2884                	lbu	s1,16(s1)
  de:	0000                	unimp
  e0:	2884                	lbu	s1,16(s1)
  e2:	0000                	unimp
  e4:	2884                	lbu	s1,16(s1)
  e6:	0000                	unimp
  e8:	2884                	lbu	s1,16(s1)
  ea:	0000                	unimp
  ec:	1236                	slli	tp,tp,0x2d
  ee:	0000                	unimp
  f0:	2884                	lbu	s1,16(s1)
  f2:	0000                	unimp
  f4:	2884                	lbu	s1,16(s1)
  f6:	0000                	unimp
  f8:	2884                	lbu	s1,16(s1)
  fa:	0000                	unimp
  fc:	2884                	lbu	s1,16(s1)
	...

Disassembly of section .text:

00000100 <__riscv_save_12>:
     100:	7139                	addi	sp,sp,-64
     102:	4301                	li	t1,0
     104:	c66e                	sw	s11,12(sp)
     106:	a019                	j	10c <__riscv_save_10+0x4>

00000108 <__riscv_save_10>:
     108:	7139                	addi	sp,sp,-64
     10a:	5341                	li	t1,-16
     10c:	c86a                	sw	s10,16(sp)
     10e:	ca66                	sw	s9,20(sp)
     110:	cc62                	sw	s8,24(sp)
     112:	ce5e                	sw	s7,28(sp)
     114:	a019                	j	11a <__riscv_save_4+0x4>

00000116 <__riscv_save_4>:
     116:	7139                	addi	sp,sp,-64
     118:	5301                	li	t1,-32
     11a:	d05a                	sw	s6,32(sp)
     11c:	d256                	sw	s5,36(sp)
     11e:	d452                	sw	s4,40(sp)
     120:	d64e                	sw	s3,44(sp)
     122:	d84a                	sw	s2,48(sp)
     124:	da26                	sw	s1,52(sp)
     126:	dc22                	sw	s0,56(sp)
     128:	de06                	sw	ra,60(sp)
     12a:	40610133          	sub	sp,sp,t1
     12e:	8282                	jr	t0

00000130 <__riscv_save_0>:
     130:	1141                	addi	sp,sp,-16
     132:	c04a                	sw	s2,0(sp)
     134:	c226                	sw	s1,4(sp)
     136:	c422                	sw	s0,8(sp)
     138:	c606                	sw	ra,12(sp)
     13a:	8282                	jr	t0

0000013c <__riscv_restore_12>:
     13c:	4db2                	lw	s11,12(sp)
     13e:	0141                	addi	sp,sp,16

00000140 <__riscv_restore_10>:
     140:	4d02                	lw	s10,0(sp)
     142:	4c92                	lw	s9,4(sp)
     144:	4c22                	lw	s8,8(sp)
     146:	4bb2                	lw	s7,12(sp)
     148:	0141                	addi	sp,sp,16

0000014a <__riscv_restore_4>:
     14a:	4b02                	lw	s6,0(sp)
     14c:	4a92                	lw	s5,4(sp)
     14e:	4a22                	lw	s4,8(sp)
     150:	49b2                	lw	s3,12(sp)
     152:	0141                	addi	sp,sp,16

00000154 <__riscv_restore_0>:
     154:	4902                	lw	s2,0(sp)
     156:	4492                	lw	s1,4(sp)
     158:	4422                	lw	s0,8(sp)
     15a:	40b2                	lw	ra,12(sp)
     15c:	0141                	addi	sp,sp,16
     15e:	8082                	ret

00000160 <memset>:
     160:	433d                	li	t1,15
     162:	872a                	mv	a4,a0
     164:	02c37363          	bgeu	t1,a2,18a <memset+0x2a>
     168:	00f77793          	andi	a5,a4,15
     16c:	efbd                	bnez	a5,1ea <memset+0x8a>
     16e:	e5ad                	bnez	a1,1d8 <memset+0x78>
     170:	ff067693          	andi	a3,a2,-16
     174:	8a3d                	andi	a2,a2,15
     176:	96ba                	add	a3,a3,a4
     178:	c30c                	sw	a1,0(a4)
     17a:	c34c                	sw	a1,4(a4)
     17c:	c70c                	sw	a1,8(a4)
     17e:	c74c                	sw	a1,12(a4)
     180:	0741                	addi	a4,a4,16
     182:	fed76be3          	bltu	a4,a3,178 <memset+0x18>
     186:	e211                	bnez	a2,18a <memset+0x2a>
     188:	8082                	ret
     18a:	40c306b3          	sub	a3,t1,a2
     18e:	068a                	slli	a3,a3,0x2
     190:	00000297          	auipc	t0,0x0
     194:	9696                	add	a3,a3,t0
     196:	00a68067          	jr	10(a3)
     19a:	00b70723          	sb	a1,14(a4)
     19e:	00b706a3          	sb	a1,13(a4)
     1a2:	00b70623          	sb	a1,12(a4)
     1a6:	00b705a3          	sb	a1,11(a4)
     1aa:	00b70523          	sb	a1,10(a4)
     1ae:	00b704a3          	sb	a1,9(a4)
     1b2:	00b70423          	sb	a1,8(a4)
     1b6:	00b703a3          	sb	a1,7(a4)
     1ba:	00b70323          	sb	a1,6(a4)
     1be:	00b702a3          	sb	a1,5(a4)
     1c2:	00b70223          	sb	a1,4(a4)
     1c6:	00b701a3          	sb	a1,3(a4)
     1ca:	00b70123          	sb	a1,2(a4)
     1ce:	00b700a3          	sb	a1,1(a4)
     1d2:	00b70023          	sb	a1,0(a4)
     1d6:	8082                	ret
     1d8:	0ff5f593          	andi	a1,a1,255
     1dc:	00859693          	slli	a3,a1,0x8
     1e0:	8dd5                	or	a1,a1,a3
     1e2:	01059693          	slli	a3,a1,0x10
     1e6:	8dd5                	or	a1,a1,a3
     1e8:	b761                	j	170 <memset+0x10>
     1ea:	00279693          	slli	a3,a5,0x2
     1ee:	00000297          	auipc	t0,0x0
     1f2:	9696                	add	a3,a3,t0
     1f4:	8286                	mv	t0,ra
     1f6:	fa8680e7          	jalr	-88(a3)
     1fa:	8096                	mv	ra,t0
     1fc:	17c1                	addi	a5,a5,-16
     1fe:	8f1d                	sub	a4,a4,a5
     200:	963e                	add	a2,a2,a5
     202:	f8c374e3          	bgeu	t1,a2,18a <memset+0x2a>
     206:	b7a5                	j	16e <memset+0xe>

00000208 <Standard_GetConfiguration>:
     208:	f29ff2ef          	jal	t0,130 <__riscv_save_0>
     20c:	e511                	bnez	a0,218 <Standard_GetConfiguration+0x10>
     20e:	8481a783          	lw	a5,-1976(gp) # 20000198 <pInformation>
     212:	4705                	li	a4,1
     214:	ab9a                	sh	a4,16(a5)
     216:	bf3d                	j	154 <__riscv_restore_0>
     218:	8501a783          	lw	a5,-1968(gp) # 200001a0 <pUser_Standard_Requests>
     21c:	439c                	lw	a5,0(a5)
     21e:	9782                	jalr	a5
     220:	8481a503          	lw	a0,-1976(gp) # 20000198 <pInformation>
     224:	0529                	addi	a0,a0,10
     226:	bfc5                	j	216 <Standard_GetConfiguration+0xe>

00000228 <Standard_GetInterface>:
     228:	f09ff2ef          	jal	t0,130 <__riscv_save_0>
     22c:	e511                	bnez	a0,238 <Standard_GetInterface+0x10>
     22e:	8481a783          	lw	a5,-1976(gp) # 20000198 <pInformation>
     232:	4705                	li	a4,1
     234:	ab9a                	sh	a4,16(a5)
     236:	bf39                	j	154 <__riscv_restore_0>
     238:	8501a783          	lw	a5,-1968(gp) # 200001a0 <pUser_Standard_Requests>
     23c:	479c                	lw	a5,8(a5)
     23e:	9782                	jalr	a5
     240:	8481a503          	lw	a0,-1976(gp) # 20000198 <pInformation>
     244:	0531                	addi	a0,a0,12
     246:	bfc5                	j	236 <Standard_GetInterface+0xe>

00000248 <Standard_GetStatus>:
     248:	8481a703          	lw	a4,-1976(gp) # 20000198 <pInformation>
     24c:	e501                	bnez	a0,254 <Standard_GetStatus+0xc>
     24e:	4789                	li	a5,2
     250:	ab1e                	sh	a5,16(a4)
     252:	8082                	ret
     254:	eddff2ef          	jal	t0,130 <__riscv_save_0>
     258:	84019223          	sh	zero,-1980(gp) # 20000194 <StatusInfo>
     25c:	231c                	lbu	a5,0(a4)
     25e:	84418413          	addi	s0,gp,-1980 # 20000194 <StatusInfo>
     262:	07f7f793          	andi	a5,a5,127
     266:	e795                	bnez	a5,292 <Standard_GetStatus+0x4a>
     268:	3718                	lbu	a4,9(a4)
     26a:	02077793          	andi	a5,a4,32
     26e:	c399                	beqz	a5,274 <Standard_GetStatus+0x2c>
     270:	4789                	li	a5,2
     272:	a01c                	sb	a5,0(s0)
     274:	04077713          	andi	a4,a4,64
     278:	201c                	lbu	a5,0(s0)
     27a:	cb11                	beqz	a4,28e <Standard_GetStatus+0x46>
     27c:	0017e793          	ori	a5,a5,1
     280:	a01c                	sb	a5,0(s0)
     282:	8501a783          	lw	a5,-1968(gp) # 200001a0 <pUser_Standard_Requests>
     286:	4b9c                	lw	a5,16(a5)
     288:	9782                	jalr	a5
     28a:	8522                	mv	a0,s0
     28c:	b5e1                	j	154 <__riscv_restore_0>
     28e:	9bf9                	andi	a5,a5,-2
     290:	bfc5                	j	280 <Standard_GetStatus+0x38>
     292:	4685                	li	a3,1
     294:	84418513          	addi	a0,gp,-1980 # 20000194 <StatusInfo>
     298:	fed78ae3          	beq	a5,a3,28c <Standard_GetStatus+0x44>
     29c:	4689                	li	a3,2
     29e:	4501                	li	a0,0
     2a0:	fed796e3          	bne	a5,a3,28c <Standard_GetStatus+0x44>
     2a4:	3358                	lbu	a4,5(a4)
     2a6:	400066b7          	lui	a3,0x40006
     2aa:	c0068693          	addi	a3,a3,-1024 # 40005c00 <_eusrstack+0x20000c00>
     2ae:	00f77793          	andi	a5,a4,15
     2b2:	078a                	slli	a5,a5,0x2
     2b4:	97b6                	add	a5,a5,a3
     2b6:	0762                	slli	a4,a4,0x18
     2b8:	439c                	lw	a5,0(a5)
     2ba:	8761                	srai	a4,a4,0x18
     2bc:	00075963          	bgez	a4,2ce <Standard_GetStatus+0x86>
     2c0:	0307f793          	andi	a5,a5,48
     2c4:	4741                	li	a4,16
     2c6:	fae79ee3          	bne	a5,a4,282 <Standard_GetStatus+0x3a>
     2ca:	4785                	li	a5,1
     2cc:	bf55                	j	280 <Standard_GetStatus+0x38>
     2ce:	670d                	lui	a4,0x3
     2d0:	8ff9                	and	a5,a5,a4
     2d2:	6705                	lui	a4,0x1
     2d4:	bfcd                	j	2c6 <Standard_GetStatus+0x7e>

000002d6 <DataStageIn>:
     2d6:	e41ff2ef          	jal	t0,116 <__riscv_save_4>
     2da:	8481a483          	lw	s1,-1976(gp) # 20000198 <pInformation>
     2de:	8a3e                	mv	s4,a5
     2e0:	2882                	lhu	s0,16(s1)
     2e2:	e829                	bnez	s0,334 <DataStageIn+0x5e>
     2e4:	2498                	lbu	a4,8(s1)
     2e6:	4791                	li	a5,4
     2e8:	04f71663          	bne	a4,a5,334 <DataStageIn+0x5e>
     2ec:	84018713          	addi	a4,gp,-1984 # 20000190 <_edata>
     2f0:	4314                	lw	a3,0(a4)
     2f2:	4785                	li	a5,1
     2f4:	02f69b63          	bne	a3,a5,32a <DataStageIn+0x54>
     2f8:	400067b7          	lui	a5,0x40006
     2fc:	c507a783          	lw	a5,-944(a5) # 40005c50 <_eusrstack+0x20000c50>
     300:	200036b7          	lui	a3,0x20003
     304:	0689                	addi	a3,a3,2
     306:	07c2                	slli	a5,a5,0x10
     308:	83c1                	srli	a5,a5,0x10
     30a:	97b6                	add	a5,a5,a3
     30c:	0786                	slli	a5,a5,0x1
     30e:	0007a023          	sw	zero,0(a5)
     312:	03000793          	li	a5,48
     316:	84f19c23          	sh	a5,-1960(gp) # 200001a8 <SaveTState>
     31a:	00072023          	sw	zero,0(a4) # 1000 <ClearEP_KIND+0x14>
     31e:	4911                	li	s2,4
     320:	8481a783          	lw	a5,-1976(gp) # 20000198 <pInformation>
     324:	01278423          	sb	s2,8(a5)
     328:	b50d                	j	14a <__riscv_restore_4>
     32a:	47c1                	li	a5,16
     32c:	84f19c23          	sh	a5,-1960(gp) # 200001a8 <SaveTState>
     330:	491d                	li	s2,7
     332:	b7fd                	j	320 <DataStageIn+0x4a>
     334:	28de                	lhu	a5,20(s1)
     336:	4911                	li	s2,4
     338:	0087f363          	bgeu	a5,s0,33e <DataStageIn+0x68>
     33c:	4909                	li	s2,2
     33e:	0087f363          	bgeu	a5,s0,344 <DataStageIn+0x6e>
     342:	843e                	mv	s0,a5
     344:	4c9c                	lw	a5,24(s1)
     346:	0442                	slli	s0,s0,0x10
     348:	8041                	srli	s0,s0,0x10
     34a:	8522                	mv	a0,s0
     34c:	9782                	jalr	a5
     34e:	8aaa                	mv	s5,a0
     350:	4501                	li	a0,0
     352:	571000ef          	jal	ra,10c2 <GetEPTxAddr>
     356:	8622                	mv	a2,s0
     358:	85aa                	mv	a1,a0
     35a:	8556                	mv	a0,s5
     35c:	33f000ef          	jal	ra,e9a <UserToPMABufferCopy>
     360:	85a2                	mv	a1,s0
     362:	4501                	li	a0,0
     364:	599000ef          	jal	ra,10fc <SetEPTxCount>
     368:	289e                	lhu	a5,16(s1)
     36a:	670d                	lui	a4,0x3
     36c:	8f81                	sub	a5,a5,s0
     36e:	a89e                	sh	a5,16(s1)
     370:	28be                	lhu	a5,18(s1)
     372:	943e                	add	s0,s0,a5
     374:	03000793          	li	a5,48
     378:	84f19c23          	sh	a5,-1960(gp) # 200001a8 <SaveTState>
     37c:	a8a2                	sh	s0,18(s1)
     37e:	84e19b23          	sh	a4,-1962(gp) # 200001a6 <SaveRState>
     382:	bf79                	j	320 <DataStageIn+0x4a>

00000384 <Standard_SetConfiguration>:
     384:	8481a783          	lw	a5,-1976(gp) # 20000198 <pInformation>
     388:	8111c683          	lbu	a3,-2031(gp) # 20000161 <Device_Table+0x1>
     38c:	33b8                	lbu	a4,3(a5)
     38e:	4509                	li	a0,2
     390:	00e6ef63          	bltu	a3,a4,3ae <Standard_SetConfiguration+0x2a>
     394:	23b4                	lbu	a3,2(a5)
     396:	ee81                	bnez	a3,3ae <Standard_SetConfiguration+0x2a>
     398:	23d6                	lhu	a3,4(a5)
     39a:	ea91                	bnez	a3,3ae <Standard_SetConfiguration+0x2a>
     39c:	d95ff2ef          	jal	t0,130 <__riscv_save_0>
     3a0:	a7b8                	sb	a4,10(a5)
     3a2:	8501a783          	lw	a5,-1968(gp) # 200001a0 <pUser_Standard_Requests>
     3a6:	43dc                	lw	a5,4(a5)
     3a8:	9782                	jalr	a5
     3aa:	4501                	li	a0,0
     3ac:	b365                	j	154 <__riscv_restore_0>
     3ae:	8082                	ret

000003b0 <Standard_SetInterface>:
     3b0:	d81ff2ef          	jal	t0,130 <__riscv_save_0>
     3b4:	8481a783          	lw	a5,-1976(gp) # 20000198 <pInformation>
     3b8:	84c1a703          	lw	a4,-1972(gp) # 2000019c <pProperty>
     3bc:	1141                	addi	sp,sp,-16
     3be:	33ac                	lbu	a1,3(a5)
     3c0:	4f18                	lw	a4,24(a4)
     3c2:	33c8                	lbu	a0,5(a5)
     3c4:	9702                	jalr	a4
     3c6:	8481a783          	lw	a5,-1976(gp) # 20000198 <pInformation>
     3ca:	27b8                	lbu	a4,10(a5)
     3cc:	c705                	beqz	a4,3f4 <Standard_SetInterface+0x44>
     3ce:	c62a                	sw	a0,12(sp)
     3d0:	e115                	bnez	a0,3f4 <Standard_SetInterface+0x44>
     3d2:	23d8                	lbu	a4,4(a5)
     3d4:	e305                	bnez	a4,3f4 <Standard_SetInterface+0x44>
     3d6:	23bc                	lbu	a5,2(a5)
     3d8:	ef91                	bnez	a5,3f4 <Standard_SetInterface+0x44>
     3da:	8501a783          	lw	a5,-1968(gp) # 200001a0 <pUser_Standard_Requests>
     3de:	47dc                	lw	a5,12(a5)
     3e0:	9782                	jalr	a5
     3e2:	8481a783          	lw	a5,-1976(gp) # 20000198 <pInformation>
     3e6:	4532                	lw	a0,12(sp)
     3e8:	33d8                	lbu	a4,5(a5)
     3ea:	b7b8                	sb	a4,11(a5)
     3ec:	33b8                	lbu	a4,3(a5)
     3ee:	a7d8                	sb	a4,12(a5)
     3f0:	0141                	addi	sp,sp,16
     3f2:	b38d                	j	154 <__riscv_restore_0>
     3f4:	4509                	li	a0,2
     3f6:	bfed                	j	3f0 <Standard_SetInterface+0x40>

000003f8 <Standard_ClearFeature>:
     3f8:	8481a783          	lw	a5,-1976(gp) # 20000198 <pInformation>
     3fc:	2398                	lbu	a4,0(a5)
     3fe:	07f77713          	andi	a4,a4,127
     402:	e719                	bnez	a4,410 <Standard_ClearFeature+0x18>
     404:	3798                	lbu	a4,9(a5)
     406:	4501                	li	a0,0
     408:	fdf77713          	andi	a4,a4,-33
     40c:	b798                	sb	a4,9(a5)
     40e:	8082                	ret
     410:	4689                	li	a3,2
     412:	4509                	li	a0,2
     414:	10d71d63          	bne	a4,a3,52e <Standard_ClearFeature+0x136>
     418:	23ba                	lhu	a4,2(a5)
     41a:	10071a63          	bnez	a4,52e <Standard_ClearFeature+0x136>
     41e:	23d8                	lbu	a4,4(a5)
     420:	10071763          	bnez	a4,52e <Standard_ClearFeature+0x136>
     424:	d0dff2ef          	jal	t0,130 <__riscv_save_0>
     428:	33d4                	lbu	a3,5(a5)
     42a:	40006737          	lui	a4,0x40006
     42e:	c0070713          	addi	a4,a4,-1024 # 40005c00 <_eusrstack+0x20000c00>
     432:	f7f6f913          	andi	s2,a3,-129
     436:	00291413          	slli	s0,s2,0x2
     43a:	943a                	add	s0,s0,a4
     43c:	06e2                	slli	a3,a3,0x18
     43e:	4018                	lw	a4,0(s0)
     440:	86e1                	srai	a3,a3,0x18
     442:	0406dd63          	bgez	a3,49c <Standard_ClearFeature+0xa4>
     446:	03077713          	andi	a4,a4,48
     44a:	8101c603          	lbu	a2,-2032(gp) # 20000160 <Device_Table>
     44e:	4509                	li	a0,2
     450:	04c97563          	bgeu	s2,a2,49a <Standard_ClearFeature+0xa2>
     454:	c339                	beqz	a4,49a <Standard_ClearFeature+0xa2>
     456:	27bc                	lbu	a5,10(a5)
     458:	c3a9                	beqz	a5,49a <Standard_ClearFeature+0xa2>
     45a:	401c                	lw	a5,0(s0)
     45c:	0406d363          	bgez	a3,4a2 <Standard_ClearFeature+0xaa>
     460:	0307f793          	andi	a5,a5,48
     464:	4741                	li	a4,16
     466:	02e79563          	bne	a5,a4,490 <Standard_ClearFeature+0x98>
     46a:	0ff97413          	andi	s0,s2,255
     46e:	8522                	mv	a0,s0
     470:	3e1000ef          	jal	ra,1050 <ClearDTOG_TX>
     474:	03000593          	li	a1,48
     478:	8522                	mv	a0,s0
     47a:	293000ef          	jal	ra,f0c <SetEPTxStatus>
     47e:	4789                	li	a5,2
     480:	00f91863          	bne	s2,a5,490 <Standard_ClearFeature+0x98>
     484:	89f1c783          	lbu	a5,-1889(gp) # 200001ef <Udisk_Transfer_Status>
     488:	8b91                	andi	a5,a5,4
     48a:	c399                	beqz	a5,490 <Standard_ClearFeature+0x98>
     48c:	7d3010ef          	jal	ra,245e <UDISK_Up_CSW>
     490:	8501a783          	lw	a5,-1968(gp) # 200001a0 <pUser_Standard_Requests>
     494:	4bdc                	lw	a5,20(a5)
     496:	9782                	jalr	a5
     498:	4501                	li	a0,0
     49a:	b96d                	j	154 <__riscv_restore_0>
     49c:	660d                	lui	a2,0x3
     49e:	8f71                	and	a4,a4,a2
     4a0:	b76d                	j	44a <Standard_ClearFeature+0x52>
     4a2:	64c1                	lui	s1,0x10
     4a4:	14fd                	addi	s1,s1,-1
     4a6:	670d                	lui	a4,0x3
     4a8:	8fe5                	and	a5,a5,s1
     4aa:	8ff9                	and	a5,a5,a4
     4ac:	6705                	lui	a4,0x1
     4ae:	fee791e3          	bne	a5,a4,490 <Standard_ClearFeature+0x98>
     4b2:	04091163          	bnez	s2,4f4 <Standard_ClearFeature+0xfc>
     4b6:	200007b7          	lui	a5,0x20000
     4ba:	0647c583          	lbu	a1,100(a5) # 20000064 <Device_Property+0x2c>
     4be:	4501                	li	a0,0
     4c0:	45b000ef          	jal	ra,111a <SetEPRxCount>
     4c4:	401c                	lw	a5,0(s0)
     4c6:	7771                	lui	a4,0xffffc
     4c8:	f8f70713          	addi	a4,a4,-113 # ffffbf8f <_eusrstack+0xdfff6f8f>
     4cc:	8ff9                	and	a5,a5,a4
     4ce:	07c2                	slli	a5,a5,0x10
     4d0:	670d                	lui	a4,0x3
     4d2:	83c1                	srli	a5,a5,0x10
     4d4:	8fb9                	xor	a5,a5,a4
     4d6:	7761                	lui	a4,0xffff8
     4d8:	08070713          	addi	a4,a4,128 # ffff8080 <_eusrstack+0xdfff3080>
     4dc:	8fd9                	or	a5,a5,a4
     4de:	07c2                	slli	a5,a5,0x10
     4e0:	83c1                	srli	a5,a5,0x10
     4e2:	c01c                	sw	a5,0(s0)
     4e4:	668d                	lui	a3,0x3
     4e6:	4018                	lw	a4,0(s0)
     4e8:	8f65                	and	a4,a4,s1
     4ea:	8f75                	and	a4,a4,a3
     4ec:	fad702e3          	beq	a4,a3,490 <Standard_ClearFeature+0x98>
     4f0:	c01c                	sw	a5,0(s0)
     4f2:	bfd5                	j	4e6 <Standard_ClearFeature+0xee>
     4f4:	854a                	mv	a0,s2
     4f6:	327000ef          	jal	ra,101c <ClearDTOG_RX>
     4fa:	401c                	lw	a5,0(s0)
     4fc:	7771                	lui	a4,0xffffc
     4fe:	f8f70713          	addi	a4,a4,-113 # ffffbf8f <_eusrstack+0xdfff6f8f>
     502:	8ff9                	and	a5,a5,a4
     504:	07c2                	slli	a5,a5,0x10
     506:	670d                	lui	a4,0x3
     508:	83c1                	srli	a5,a5,0x10
     50a:	8fb9                	xor	a5,a5,a4
     50c:	7761                	lui	a4,0xffff8
     50e:	08070713          	addi	a4,a4,128 # ffff8080 <_eusrstack+0xdfff3080>
     512:	8fd9                	or	a5,a5,a4
     514:	07c2                	slli	a5,a5,0x10
     516:	83c1                	srli	a5,a5,0x10
     518:	c01c                	sw	a5,0(s0)
     51a:	668d                	lui	a3,0x3
     51c:	4018                	lw	a4,0(s0)
     51e:	8f65                	and	a4,a4,s1
     520:	8f75                	and	a4,a4,a3
     522:	00d71463          	bne	a4,a3,52a <Standard_ClearFeature+0x132>
     526:	478d                	li	a5,3
     528:	bfa1                	j	480 <Standard_ClearFeature+0x88>
     52a:	c01c                	sw	a5,0(s0)
     52c:	bfc5                	j	51c <Standard_ClearFeature+0x124>
     52e:	8082                	ret

00000530 <Standard_SetEndPointFeature>:
     530:	8481a603          	lw	a2,-1976(gp) # 20000198 <pInformation>
     534:	400067b7          	lui	a5,0x40006
     538:	c0078793          	addi	a5,a5,-1024 # 40005c00 <_eusrstack+0x20000c00>
     53c:	3254                	lbu	a3,5(a2)
     53e:	f7f6f593          	andi	a1,a3,-129
     542:	00259713          	slli	a4,a1,0x2
     546:	97ba                	add	a5,a5,a4
     548:	06e2                	slli	a3,a3,0x18
     54a:	4398                	lw	a4,0(a5)
     54c:	86e1                	srai	a3,a3,0x18
     54e:	0406de63          	bgez	a3,5aa <Standard_SetEndPointFeature+0x7a>
     552:	03077713          	andi	a4,a4,48
     556:	8101c803          	lbu	a6,-2032(gp) # 20000160 <Device_Table>
     55a:	4509                	li	a0,2
     55c:	0905f663          	bgeu	a1,a6,5e8 <Standard_SetEndPointFeature+0xb8>
     560:	222e                	lhu	a1,2(a2)
     562:	e1d9                	bnez	a1,5e8 <Standard_SetEndPointFeature+0xb8>
     564:	c351                	beqz	a4,5e8 <Standard_SetEndPointFeature+0xb8>
     566:	2638                	lbu	a4,10(a2)
     568:	c341                	beqz	a4,5e8 <Standard_SetEndPointFeature+0xb8>
     56a:	bc7ff2ef          	jal	t0,130 <__riscv_save_0>
     56e:	4398                	lw	a4,0(a5)
     570:	0406d263          	bgez	a3,5b4 <Standard_SetEndPointFeature+0x84>
     574:	76e5                	lui	a3,0xffff9
     576:	fbf68693          	addi	a3,a3,-65 # ffff8fbf <_eusrstack+0xdfff3fbf>
     57a:	8f75                	and	a4,a4,a3
     57c:	0742                	slli	a4,a4,0x10
     57e:	8341                	srli	a4,a4,0x10
     580:	76e1                	lui	a3,0xffff8
     582:	01074713          	xori	a4,a4,16
     586:	08068693          	addi	a3,a3,128 # ffff8080 <_eusrstack+0xdfff3080>
     58a:	8f55                	or	a4,a4,a3
     58c:	0742                	slli	a4,a4,0x10
     58e:	8341                	srli	a4,a4,0x10
     590:	c398                	sw	a4,0(a5)
     592:	4641                	li	a2,16
     594:	4394                	lw	a3,0(a5)
     596:	0306f693          	andi	a3,a3,48
     59a:	00c69b63          	bne	a3,a2,5b0 <Standard_SetEndPointFeature+0x80>
     59e:	8501a783          	lw	a5,-1968(gp) # 200001a0 <pUser_Standard_Requests>
     5a2:	4f9c                	lw	a5,24(a5)
     5a4:	9782                	jalr	a5
     5a6:	4501                	li	a0,0
     5a8:	b675                	j	154 <__riscv_restore_0>
     5aa:	650d                	lui	a0,0x3
     5ac:	8f69                	and	a4,a4,a0
     5ae:	b765                	j	556 <Standard_SetEndPointFeature+0x26>
     5b0:	c398                	sw	a4,0(a5)
     5b2:	b7cd                	j	594 <Standard_SetEndPointFeature+0x64>
     5b4:	76f1                	lui	a3,0xffffc
     5b6:	f8f68693          	addi	a3,a3,-113 # ffffbf8f <_eusrstack+0xdfff6f8f>
     5ba:	8f75                	and	a4,a4,a3
     5bc:	0742                	slli	a4,a4,0x10
     5be:	6685                	lui	a3,0x1
     5c0:	8341                	srli	a4,a4,0x10
     5c2:	8f35                	xor	a4,a4,a3
     5c4:	76e1                	lui	a3,0xffff8
     5c6:	08068693          	addi	a3,a3,128 # ffff8080 <_eusrstack+0xdfff3080>
     5ca:	8f55                	or	a4,a4,a3
     5cc:	0742                	slli	a4,a4,0x10
     5ce:	8341                	srli	a4,a4,0x10
     5d0:	6641                	lui	a2,0x10
     5d2:	c398                	sw	a4,0(a5)
     5d4:	167d                	addi	a2,a2,-1
     5d6:	650d                	lui	a0,0x3
     5d8:	6585                	lui	a1,0x1
     5da:	4394                	lw	a3,0(a5)
     5dc:	8ef1                	and	a3,a3,a2
     5de:	8ee9                	and	a3,a3,a0
     5e0:	fab68fe3          	beq	a3,a1,59e <Standard_SetEndPointFeature+0x6e>
     5e4:	c398                	sw	a4,0(a5)
     5e6:	bfd5                	j	5da <Standard_SetEndPointFeature+0xaa>
     5e8:	8082                	ret

000005ea <Standard_SetDeviceFeature>:
     5ea:	b47ff2ef          	jal	t0,130 <__riscv_save_0>
     5ee:	8481a703          	lw	a4,-1976(gp) # 20000198 <pInformation>
     5f2:	371c                	lbu	a5,9(a4)
     5f4:	0207e793          	ori	a5,a5,32
     5f8:	b71c                	sb	a5,9(a4)
     5fa:	8501a783          	lw	a5,-1968(gp) # 200001a0 <pUser_Standard_Requests>
     5fe:	4fdc                	lw	a5,28(a5)
     600:	9782                	jalr	a5
     602:	4501                	li	a0,0
     604:	be81                	j	154 <__riscv_restore_0>

00000606 <Standard_GetDescriptorData>:
     606:	8481a703          	lw	a4,-1976(gp) # 20000198 <pInformation>
     60a:	2b3e                	lhu	a5,18(a4)
     60c:	e511                	bnez	a0,618 <Standard_GetDescriptorData+0x12>
     60e:	21ca                	lhu	a0,4(a1)
     610:	8d1d                	sub	a0,a0,a5
     612:	ab0a                	sh	a0,16(a4)
     614:	4501                	li	a0,0
     616:	8082                	ret
     618:	4188                	lw	a0,0(a1)
     61a:	953e                	add	a0,a0,a5
     61c:	8082                	ret

0000061e <Post0_Process>:
     61e:	b13ff2ef          	jal	t0,130 <__riscv_save_0>
     622:	200007b7          	lui	a5,0x20000
     626:	0647c583          	lbu	a1,100(a5) # 20000064 <Device_Property+0x2c>
     62a:	4501                	li	a0,0
     62c:	2ef000ef          	jal	ra,111a <SetEPRxCount>
     630:	8481a783          	lw	a5,-1976(gp) # 20000198 <pInformation>
     634:	2788                	lbu	a0,8(a5)
     636:	47a1                	li	a5,8
     638:	00f51863          	bne	a0,a5,648 <Post0_Process+0x2a>
     63c:	6705                	lui	a4,0x1
     63e:	84e19b23          	sh	a4,-1962(gp) # 200001a6 <SaveRState>
     642:	4741                	li	a4,16
     644:	84e19c23          	sh	a4,-1960(gp) # 200001a8 <SaveTState>
     648:	155d                	addi	a0,a0,-9
     64a:	00153513          	seqz	a0,a0
     64e:	b619                	j	154 <__riscv_restore_0>

00000650 <Setup0_Process>:
     650:	ae1ff2ef          	jal	t0,130 <__riscv_save_0>
     654:	8481a903          	lw	s2,-1976(gp) # 20000198 <pInformation>
     658:	40006637          	lui	a2,0x40006
     65c:	c5062783          	lw	a5,-944(a2) # 40005c50 <_eusrstack+0x20000c50>
     660:	00894683          	lbu	a3,8(s2)
     664:	4725                	li	a4,9
     666:	1141                	addi	sp,sp,-16
     668:	04e68563          	beq	a3,a4,6b2 <Setup0_Process+0x62>
     66c:	6441                	lui	s0,0x10
     66e:	fff40713          	addi	a4,s0,-1 # ffff <_data_lma+0xbd73>
     672:	200036b7          	lui	a3,0x20003
     676:	8ff9                	and	a5,a5,a4
     678:	0691                	addi	a3,a3,4
     67a:	97b6                	add	a5,a5,a3
     67c:	0786                	slli	a5,a5,0x1
     67e:	4380                	lw	s0,0(a5)
     680:	8c79                	and	s0,s0,a4
     682:	0406                	slli	s0,s0,0x1
     684:	9432                	add	s0,s0,a2
     686:	201c                	lbu	a5,0(s0)
     688:	00f90023          	sb	a5,0(s2)
     68c:	301c                	lbu	a5,1(s0)
     68e:	00f900a3          	sb	a5,1(s2)
     692:	204a                	lhu	a0,4(s0)
     694:	32b000ef          	jal	ra,11be <ByteSwap>
     698:	00a91123          	sh	a0,2(s2)
     69c:	240a                	lhu	a0,8(s0)
     69e:	8481a903          	lw	s2,-1976(gp) # 20000198 <pInformation>
     6a2:	31d000ef          	jal	ra,11be <ByteSwap>
     6a6:	00a91223          	sh	a0,4(s2)
     6aa:	245a                	lhu	a4,12(s0)
     6ac:	8481a783          	lw	a5,-1976(gp) # 20000198 <pInformation>
     6b0:	a3fa                	sh	a4,6(a5)
     6b2:	8481a783          	lw	a5,-1976(gp) # 20000198 <pInformation>
     6b6:	4705                	li	a4,1
     6b8:	a798                	sb	a4,8(a5)
     6ba:	23fa                	lhu	a4,6(a5)
     6bc:	3380                	lbu	s0,1(a5)
     6be:	0c071963          	bnez	a4,790 <Setup0_Process+0x140>
     6c2:	2398                	lbu	a4,0(a5)
     6c4:	07f77713          	andi	a4,a4,127
     6c8:	e355                	bnez	a4,76c <Setup0_Process+0x11c>
     6ca:	4725                	li	a4,9
     6cc:	00e41563          	bne	s0,a4,6d6 <Setup0_Process+0x86>
     6d0:	3955                	jal	384 <Standard_SetConfiguration>
     6d2:	e125                	bnez	a0,732 <Setup0_Process+0xe2>
     6d4:	a02d                	j	6fe <Setup0_Process+0xae>
     6d6:	4715                	li	a4,5
     6d8:	04e41663          	bne	s0,a4,724 <Setup0_Process+0xd4>
     6dc:	00378703          	lb	a4,3(a5)
     6e0:	00075963          	bgez	a4,6f2 <Setup0_Process+0xa2>
     6e4:	47a1                	li	a5,8
     6e6:	8481a703          	lw	a4,-1976(gp) # 20000198 <pInformation>
     6ea:	a71c                	sb	a5,8(a4)
     6ec:	3f0d                	jal	61e <Post0_Process>
     6ee:	0141                	addi	sp,sp,16
     6f0:	b495                	j	154 <__riscv_restore_0>
     6f2:	23b8                	lbu	a4,2(a5)
     6f4:	fb65                	bnez	a4,6e4 <Setup0_Process+0x94>
     6f6:	23da                	lhu	a4,4(a5)
     6f8:	f775                	bnez	a4,6e4 <Setup0_Process+0x94>
     6fa:	27bc                	lbu	a5,10(a5)
     6fc:	f7e5                	bnez	a5,6e4 <Setup0_Process+0x94>
     6fe:	400067b7          	lui	a5,0x40006
     702:	c507a783          	lw	a5,-944(a5) # 40005c50 <_eusrstack+0x20000c50>
     706:	20003737          	lui	a4,0x20003
     70a:	0709                	addi	a4,a4,2
     70c:	07c2                	slli	a5,a5,0x10
     70e:	83c1                	srli	a5,a5,0x10
     710:	97ba                	add	a5,a5,a4
     712:	0786                	slli	a5,a5,0x1
     714:	0007a023          	sw	zero,0(a5)
     718:	03000713          	li	a4,48
     71c:	84e19c23          	sh	a4,-1960(gp) # 200001a8 <SaveTState>
     720:	4799                	li	a5,6
     722:	b7d1                	j	6e6 <Setup0_Process+0x96>
     724:	470d                	li	a4,3
     726:	02e41563          	bne	s0,a4,750 <Setup0_Process+0x100>
     72a:	33b4                	lbu	a3,3(a5)
     72c:	4705                	li	a4,1
     72e:	00e68d63          	beq	a3,a4,748 <Setup0_Process+0xf8>
     732:	84c1a783          	lw	a5,-1972(gp) # 2000019c <pProperty>
     736:	8522                	mv	a0,s0
     738:	4bdc                	lw	a5,20(a5)
     73a:	9782                	jalr	a5
     73c:	470d                	li	a4,3
     73e:	47a5                	li	a5,9
     740:	fae503e3          	beq	a0,a4,6e6 <Setup0_Process+0x96>
     744:	dd4d                	beqz	a0,6fe <Setup0_Process+0xae>
     746:	bf79                	j	6e4 <Setup0_Process+0x94>
     748:	23de                	lhu	a5,4(a5)
     74a:	f7e5                	bnez	a5,732 <Setup0_Process+0xe2>
     74c:	3d79                	jal	5ea <Standard_SetDeviceFeature>
     74e:	b751                	j	6d2 <Setup0_Process+0x82>
     750:	4705                	li	a4,1
     752:	fee410e3          	bne	s0,a4,732 <Setup0_Process+0xe2>
     756:	33b8                	lbu	a4,3(a5)
     758:	fc871de3          	bne	a4,s0,732 <Setup0_Process+0xe2>
     75c:	23da                	lhu	a4,4(a5)
     75e:	fb71                	bnez	a4,732 <Setup0_Process+0xe2>
     760:	379c                	lbu	a5,9(a5)
     762:	0207f793          	andi	a5,a5,32
     766:	d7f1                	beqz	a5,732 <Setup0_Process+0xe2>
     768:	3941                	jal	3f8 <Standard_ClearFeature>
     76a:	b7a5                	j	6d2 <Setup0_Process+0x82>
     76c:	4785                	li	a5,1
     76e:	00f71763          	bne	a4,a5,77c <Setup0_Process+0x12c>
     772:	47ad                	li	a5,11
     774:	faf41fe3          	bne	s0,a5,732 <Setup0_Process+0xe2>
     778:	3925                	jal	3b0 <Standard_SetInterface>
     77a:	bfa1                	j	6d2 <Setup0_Process+0x82>
     77c:	4689                	li	a3,2
     77e:	fad71ae3          	bne	a4,a3,732 <Setup0_Process+0xe2>
     782:	fef403e3          	beq	s0,a5,768 <Setup0_Process+0x118>
     786:	478d                	li	a5,3
     788:	faf415e3          	bne	s0,a5,732 <Setup0_Process+0xe2>
     78c:	3355                	jal	530 <Standard_SetEndPointFeature>
     78e:	b791                	j	6d2 <Setup0_Process+0x82>
     790:	4719                	li	a4,6
     792:	02e41963          	bne	s0,a4,7c4 <Setup0_Process+0x174>
     796:	2398                	lbu	a4,0(a5)
     798:	07f77713          	andi	a4,a4,127
     79c:	eb71                	bnez	a4,870 <__stack_size+0x70>
     79e:	23bc                	lbu	a5,2(a5)
     7a0:	4685                	li	a3,1
     7a2:	84c1a703          	lw	a4,-1972(gp) # 2000019c <pProperty>
     7a6:	00d79563          	bne	a5,a3,7b0 <Setup0_Process+0x160>
     7aa:	4f5c                	lw	a5,28(a4)
     7ac:	c3f1                	beqz	a5,870 <__stack_size+0x70>
     7ae:	a089                	j	7f0 <Setup0_Process+0x1a0>
     7b0:	4689                	li	a3,2
     7b2:	00d79463          	bne	a5,a3,7ba <Setup0_Process+0x16a>
     7b6:	531c                	lw	a5,32(a4)
     7b8:	bfd5                	j	7ac <Setup0_Process+0x15c>
     7ba:	468d                	li	a3,3
     7bc:	0ad79a63          	bne	a5,a3,870 <__stack_size+0x70>
     7c0:	535c                	lw	a5,36(a4)
     7c2:	b7ed                	j	7ac <Setup0_Process+0x15c>
     7c4:	e861                	bnez	s0,894 <__stack_size+0x94>
     7c6:	23ba                	lhu	a4,2(a5)
     7c8:	e745                	bnez	a4,870 <__stack_size+0x70>
     7ca:	43d8                	lw	a4,4(a5)
     7cc:	76c1                	lui	a3,0xffff0
     7ce:	0ff68693          	addi	a3,a3,255 # ffff00ff <_eusrstack+0xdffeb0ff>
     7d2:	8f75                	and	a4,a4,a3
     7d4:	000206b7          	lui	a3,0x20
     7d8:	08d71c63          	bne	a4,a3,870 <__stack_size+0x70>
     7dc:	2398                	lbu	a4,0(a5)
     7de:	07f77713          	andi	a4,a4,127
     7e2:	ef05                	bnez	a4,81a <__stack_size+0x1a>
     7e4:	23de                	lhu	a5,4(a5)
     7e6:	e7c9                	bnez	a5,870 <__stack_size+0x70>
     7e8:	000007b7          	lui	a5,0x0
     7ec:	24878793          	addi	a5,a5,584 # 248 <Standard_GetStatus>
     7f0:	8481a703          	lw	a4,-1976(gp) # 20000198 <pInformation>
     7f4:	4501                	li	a0,0
     7f6:	00071923          	sh	zero,18(a4) # 20003012 <__global_pointer$+0x26c2>
     7fa:	cf1c                	sw	a5,24(a4)
     7fc:	9782                	jalr	a5
     7fe:	4501                	li	a0,0
     800:	8481a783          	lw	a5,-1976(gp) # 20000198 <pInformation>
     804:	66c1                	lui	a3,0x10
     806:	16fd                	addi	a3,a3,-1
     808:	2b9a                	lhu	a4,16(a5)
     80a:	06d70f63          	beq	a4,a3,888 <__stack_size+0x88>
     80e:	4689                	li	a3,2
     810:	00d50363          	beq	a0,a3,816 <__stack_size+0x16>
     814:	ef69                	bnez	a4,8ee <__stack_size+0xee>
     816:	4721                	li	a4,8
     818:	a88d                	j	88a <__stack_size+0x8a>
     81a:	4685                	li	a3,1
     81c:	00d71e63          	bne	a4,a3,838 <__stack_size+0x38>
     820:	84c1a703          	lw	a4,-1972(gp) # 2000019c <pProperty>
     824:	33c8                	lbu	a0,5(a5)
     826:	4581                	li	a1,0
     828:	4f18                	lw	a4,24(a4)
     82a:	9702                	jalr	a4
     82c:	e131                	bnez	a0,870 <__stack_size+0x70>
     82e:	8481a783          	lw	a5,-1976(gp) # 20000198 <pInformation>
     832:	27bc                	lbu	a5,10(a5)
     834:	fbd5                	bnez	a5,7e8 <Setup0_Process+0x198>
     836:	a82d                	j	870 <__stack_size+0x70>
     838:	4689                	li	a3,2
     83a:	02d71b63          	bne	a4,a3,870 <__stack_size+0x70>
     83e:	33d8                	lbu	a4,5(a5)
     840:	400066b7          	lui	a3,0x40006
     844:	c0068693          	addi	a3,a3,-1024 # 40005c00 <_eusrstack+0x20000c00>
     848:	00f77613          	andi	a2,a4,15
     84c:	00261793          	slli	a5,a2,0x2
     850:	97b6                	add	a5,a5,a3
     852:	439c                	lw	a5,0(a5)
     854:	01871693          	slli	a3,a4,0x18
     858:	86e1                	srai	a3,a3,0x18
     85a:	0206da63          	bgez	a3,88e <__stack_size+0x8e>
     85e:	0307f793          	andi	a5,a5,48
     862:	8101c683          	lbu	a3,-2032(gp) # 20000160 <Device_Table>
     866:	00d67563          	bgeu	a2,a3,870 <__stack_size+0x70>
     86a:	07077713          	andi	a4,a4,112
     86e:	d379                	beqz	a4,834 <__stack_size+0x34>
     870:	8481a703          	lw	a4,-1976(gp) # 20000198 <pInformation>
     874:	84c1a783          	lw	a5,-1972(gp) # 2000019c <pProperty>
     878:	3308                	lbu	a0,1(a4)
     87a:	4b9c                	lw	a5,16(a5)
     87c:	9782                	jalr	a5
     87e:	478d                	li	a5,3
     880:	f8f510e3          	bne	a0,a5,800 <__stack_size>
     884:	8481a783          	lw	a5,-1976(gp) # 20000198 <pInformation>
     888:	4725                	li	a4,9
     88a:	a798                	sb	a4,8(a5)
     88c:	b585                	j	6ec <Setup0_Process+0x9c>
     88e:	668d                	lui	a3,0x3
     890:	8ff5                	and	a5,a5,a3
     892:	bfc1                	j	862 <__stack_size+0x62>
     894:	4721                	li	a4,8
     896:	00e41b63          	bne	s0,a4,8ac <__stack_size+0xac>
     89a:	239c                	lbu	a5,0(a5)
     89c:	07f7f793          	andi	a5,a5,127
     8a0:	fbe1                	bnez	a5,870 <__stack_size+0x70>
     8a2:	000007b7          	lui	a5,0x0
     8a6:	20878793          	addi	a5,a5,520 # 208 <Standard_GetConfiguration>
     8aa:	b799                	j	7f0 <Setup0_Process+0x1a0>
     8ac:	4729                	li	a4,10
     8ae:	fce411e3          	bne	s0,a4,870 <__stack_size+0x70>
     8b2:	2398                	lbu	a4,0(a5)
     8b4:	4685                	li	a3,1
     8b6:	07f77713          	andi	a4,a4,127
     8ba:	fad71be3          	bne	a4,a3,870 <__stack_size+0x70>
     8be:	27b8                	lbu	a4,10(a5)
     8c0:	db45                	beqz	a4,870 <__stack_size+0x70>
     8c2:	23ba                	lhu	a4,2(a5)
     8c4:	f755                	bnez	a4,870 <__stack_size+0x70>
     8c6:	43d8                	lw	a4,4(a5)
     8c8:	76c1                	lui	a3,0xffff0
     8ca:	0ff68693          	addi	a3,a3,255 # ffff00ff <_eusrstack+0xdffeb0ff>
     8ce:	8f75                	and	a4,a4,a3
     8d0:	66c1                	lui	a3,0x10
     8d2:	f8d71fe3          	bne	a4,a3,870 <__stack_size+0x70>
     8d6:	84c1a703          	lw	a4,-1972(gp) # 2000019c <pProperty>
     8da:	33c8                	lbu	a0,5(a5)
     8dc:	4581                	li	a1,0
     8de:	4f18                	lw	a4,24(a4)
     8e0:	9702                	jalr	a4
     8e2:	f559                	bnez	a0,870 <__stack_size+0x70>
     8e4:	000007b7          	lui	a5,0x0
     8e8:	22878793          	addi	a5,a5,552 # 228 <Standard_GetInterface>
     8ec:	b711                	j	7f0 <Setup0_Process+0x1a0>
     8ee:	00078683          	lb	a3,0(a5)
     8f2:	0406d163          	bgez	a3,934 <__stack_size+0x134>
     8f6:	84c1a683          	lw	a3,-1972(gp) # 2000019c <pProperty>
     8fa:	23ee                	lhu	a1,6(a5)
     8fc:	02c6c603          	lbu	a2,44(a3) # 1002c <_data_lma+0xbda0>
     900:	c62e                	sw	a1,12(sp)
     902:	4532                	lw	a0,12(sp)
     904:	01061693          	slli	a3,a2,0x10
     908:	82c1                	srli	a3,a3,0x10
     90a:	00e57763          	bgeu	a0,a4,918 <__stack_size+0x118>
     90e:	4732                	lw	a4,12(sp)
     910:	ab9a                	sh	a4,16(a5)
     912:	abd6                	sh	a3,20(a5)
     914:	32c9                	jal	2d6 <DataStageIn>
     916:	bbd9                	j	6ec <Setup0_Process+0x9c>
     918:	feb77de3          	bgeu	a4,a1,912 <__stack_size+0x112>
     91c:	00d77563          	bgeu	a4,a3,926 <__stack_size+0x126>
     920:	8401a023          	sw	zero,-1984(gp) # 20000190 <_edata>
     924:	b7fd                	j	912 <__stack_size+0x112>
     926:	02c76733          	rem	a4,a4,a2
     92a:	f765                	bnez	a4,912 <__stack_size+0x112>
     92c:	4605                	li	a2,1
     92e:	84c1a023          	sw	a2,-1984(gp) # 20000190 <_edata>
     932:	b7c5                	j	912 <__stack_size+0x112>
     934:	470d                	li	a4,3
     936:	a798                	sb	a4,8(a5)
     938:	670d                	lui	a4,0x3
     93a:	84e19b23          	sh	a4,-1962(gp) # 200001a6 <SaveRState>
     93e:	b37d                	j	6ec <Setup0_Process+0x9c>

00000940 <Out0_Process>:
     940:	fd6ff2ef          	jal	t0,116 <__riscv_save_4>
     944:	8481a403          	lw	s0,-1976(gp) # 20000198 <pInformation>
     948:	44a1                	li	s1,8
     94a:	241c                	lbu	a5,8(s0)
     94c:	ffe78713          	addi	a4,a5,-2
     950:	0fd77713          	andi	a4,a4,253
     954:	c72d                	beqz	a4,9be <Out0_Process+0x7e>
     956:	ffd78713          	addi	a4,a5,-3
     95a:	0fd77713          	andi	a4,a4,253
     95e:	ef49                	bnez	a4,9f8 <Out0_Process+0xb8>
     960:	4c1c                	lw	a5,24(s0)
     962:	cb85                	beqz	a5,992 <Out0_Process+0x52>
     964:	2806                	lhu	s1,16(s0)
     966:	c0b9                	beqz	s1,9ac <Out0_Process+0x6c>
     968:	285a                	lhu	a4,20(s0)
     96a:	00977363          	bgeu	a4,s1,970 <Out0_Process+0x30>
     96e:	84ba                	mv	s1,a4
     970:	04c2                	slli	s1,s1,0x10
     972:	80c1                	srli	s1,s1,0x10
     974:	8526                	mv	a0,s1
     976:	9782                	jalr	a5
     978:	281e                	lhu	a5,16(s0)
     97a:	89aa                	mv	s3,a0
     97c:	4501                	li	a0,0
     97e:	8f85                	sub	a5,a5,s1
     980:	a81e                	sh	a5,16(s0)
     982:	283e                	lhu	a5,18(s0)
     984:	97a6                	add	a5,a5,s1
     986:	a83e                	sh	a5,18(s0)
     988:	2f99                	jal	10de <GetEPRxAddr>
     98a:	85aa                	mv	a1,a0
     98c:	8626                	mv	a2,s1
     98e:	854e                	mv	a0,s3
     990:	233d                	jal	ebe <PMAToUserBufferCopy>
     992:	281e                	lhu	a5,16(s0)
     994:	cf81                	beqz	a5,9ac <Out0_Process+0x6c>
     996:	670d                	lui	a4,0x3
     998:	4581                	li	a1,0
     99a:	4501                	li	a0,0
     99c:	84e19b23          	sh	a4,-1962(gp) # 200001a6 <SaveRState>
     9a0:	75c000ef          	jal	ra,10fc <SetEPTxCount>
     9a4:	03000713          	li	a4,48
     9a8:	84e19c23          	sh	a4,-1960(gp) # 200001a8 <SaveTState>
     9ac:	281e                	lhu	a5,16(s0)
     9ae:	2856                	lhu	a3,20(s0)
     9b0:	8481a703          	lw	a4,-1976(gp) # 20000198 <pInformation>
     9b4:	00d7eb63          	bltu	a5,a3,9ca <Out0_Process+0x8a>
     9b8:	478d                	li	a5,3
     9ba:	a71c                	sb	a5,8(a4)
     9bc:	2704                	lbu	s1,8(a4)
     9be:	8481a783          	lw	a5,-1976(gp) # 20000198 <pInformation>
     9c2:	a784                	sb	s1,8(a5)
     9c4:	39a9                	jal	61e <Post0_Process>
     9c6:	f84ff06f          	j	14a <__riscv_restore_4>
     9ca:	c399                	beqz	a5,9d0 <Out0_Process+0x90>
     9cc:	4795                	li	a5,5
     9ce:	b7f5                	j	9ba <Out0_Process+0x7a>
     9d0:	4799                	li	a5,6
     9d2:	a71c                	sb	a5,8(a4)
     9d4:	400067b7          	lui	a5,0x40006
     9d8:	c507a783          	lw	a5,-944(a5) # 40005c50 <_eusrstack+0x20000c50>
     9dc:	200036b7          	lui	a3,0x20003
     9e0:	0689                	addi	a3,a3,2
     9e2:	07c2                	slli	a5,a5,0x10
     9e4:	83c1                	srli	a5,a5,0x10
     9e6:	97b6                	add	a5,a5,a3
     9e8:	0786                	slli	a5,a5,0x1
     9ea:	0007a023          	sw	zero,0(a5)
     9ee:	03000693          	li	a3,48
     9f2:	84d19c23          	sh	a3,-1960(gp) # 200001a8 <SaveTState>
     9f6:	b7d9                	j	9bc <Out0_Process+0x7c>
     9f8:	471d                	li	a4,7
     9fa:	44a1                	li	s1,8
     9fc:	fce791e3          	bne	a5,a4,9be <Out0_Process+0x7e>
     a00:	84c1a783          	lw	a5,-1972(gp) # 2000019c <pProperty>
     a04:	47dc                	lw	a5,12(a5)
     a06:	9782                	jalr	a5
     a08:	bf5d                	j	9be <Out0_Process+0x7e>

00000a0a <SetDeviceAddress>:
     a0a:	8101c303          	lbu	t1,-2032(gp) # 20000160 <Device_Table>
     a0e:	40006637          	lui	a2,0x40006
     a12:	65c1                	lui	a1,0x10
     a14:	6805                	lui	a6,0x1
     a16:	68a1                	lui	a7,0x8
     a18:	4701                	li	a4,0
     a1a:	c0060613          	addi	a2,a2,-1024 # 40005c00 <_eusrstack+0x20000c00>
     a1e:	15fd                	addi	a1,a1,-1
     a20:	f0f80813          	addi	a6,a6,-241 # f0f <SetEPTxStatus+0x3>
     a24:	08088893          	addi	a7,a7,128 # 8080 <_data_lma+0x3df4>
     a28:	00676963          	bltu	a4,t1,a3a <SetDeviceAddress+0x30>
     a2c:	08056513          	ori	a0,a0,128
     a30:	400067b7          	lui	a5,0x40006
     a34:	c4a7a623          	sw	a0,-948(a5) # 40005c4c <_eusrstack+0x20000c4c>
     a38:	8082                	ret
     a3a:	00271693          	slli	a3,a4,0x2
     a3e:	96b2                	add	a3,a3,a2
     a40:	429c                	lw	a5,0(a3)
     a42:	8fed                	and	a5,a5,a1
     a44:	0107f7b3          	and	a5,a5,a6
     a48:	8fd9                	or	a5,a5,a4
     a4a:	0117e7b3          	or	a5,a5,a7
     a4e:	c29c                	sw	a5,0(a3)
     a50:	0705                	addi	a4,a4,1
     a52:	bfd9                	j	a28 <SetDeviceAddress+0x1e>

00000a54 <In0_Process>:
     a54:	edcff2ef          	jal	t0,130 <__riscv_save_0>
     a58:	8481a783          	lw	a5,-1976(gp) # 20000198 <pInformation>
     a5c:	2794                	lbu	a3,8(a5)
     a5e:	ffe68713          	addi	a4,a3,-2 # 20002ffe <__global_pointer$+0x26ae>
     a62:	0fd77713          	andi	a4,a4,253
     a66:	ef01                	bnez	a4,a7e <In0_Process+0x2a>
     a68:	86fff0ef          	jal	ra,2d6 <DataStageIn>
     a6c:	8481a783          	lw	a5,-1976(gp) # 20000198 <pInformation>
     a70:	2798                	lbu	a4,8(a5)
     a72:	8481a783          	lw	a5,-1976(gp) # 20000198 <pInformation>
     a76:	a798                	sb	a4,8(a5)
     a78:	365d                	jal	61e <Post0_Process>
     a7a:	edaff06f          	j	154 <__riscv_restore_0>
     a7e:	4619                	li	a2,6
     a80:	4721                	li	a4,8
     a82:	fec698e3          	bne	a3,a2,a72 <In0_Process+0x1e>
     a86:	3394                	lbu	a3,1(a5)
     a88:	4715                	li	a4,5
     a8a:	00e69c63          	bne	a3,a4,aa2 <In0_Process+0x4e>
     a8e:	2398                	lbu	a4,0(a5)
     a90:	07f77713          	andi	a4,a4,127
     a94:	e719                	bnez	a4,aa2 <In0_Process+0x4e>
     a96:	33a8                	lbu	a0,3(a5)
     a98:	3f8d                	jal	a0a <SetDeviceAddress>
     a9a:	8501a783          	lw	a5,-1968(gp) # 200001a0 <pUser_Standard_Requests>
     a9e:	539c                	lw	a5,32(a5)
     aa0:	9782                	jalr	a5
     aa2:	84c1a783          	lw	a5,-1972(gp) # 2000019c <pProperty>
     aa6:	479c                	lw	a5,8(a5)
     aa8:	9782                	jalr	a5
     aaa:	4721                	li	a4,8
     aac:	b7d9                	j	a72 <In0_Process+0x1e>

00000aae <NOP_Process>:
     aae:	8082                	ret

00000ab0 <USB_Init>:
     ab0:	e80ff2ef          	jal	t0,130 <__riscv_save_0>
     ab4:	8b818793          	addi	a5,gp,-1864 # 20000208 <Device_Info>
     ab8:	84f1a423          	sw	a5,-1976(gp) # 20000198 <pInformation>
     abc:	4709                	li	a4,2
     abe:	a798                	sb	a4,8(a5)
     ac0:	20000737          	lui	a4,0x20000
     ac4:	03870693          	addi	a3,a4,56 # 20000038 <Device_Property>
     ac8:	84d1a623          	sw	a3,-1972(gp) # 2000019c <pProperty>
     acc:	200007b7          	lui	a5,0x20000
     ad0:	08878793          	addi	a5,a5,136 # 20000088 <User_Standard_Requests>
     ad4:	84f1a823          	sw	a5,-1968(gp) # 200001a0 <pUser_Standard_Requests>
     ad8:	03872783          	lw	a5,56(a4)
     adc:	9782                	jalr	a5
     ade:	e76ff06f          	j	154 <__riscv_restore_0>

00000ae2 <CTR_LP>:
     ae2:	e26ff2ef          	jal	t0,108 <__riscv_save_10>
     ae6:	1141                	addi	sp,sp,-16
     ae8:	20000a37          	lui	s4,0x20000
     aec:	20000ab7          	lui	s5,0x20000
     af0:	79e1                	lui	s3,0xffff8
     af2:	00011723          	sh	zero,14(sp)
     af6:	000a0a13          	mv	s4,s4
     afa:	01ca8a93          	addi	s5,s5,28 # 2000001c <pEpInt_OUT>
     afe:	08098993          	addi	s3,s3,128 # ffff8080 <_eusrstack+0xdfff3080>
     b02:	400065b7          	lui	a1,0x40006
     b06:	c445a783          	lw	a5,-956(a1) # 40005c44 <_eusrstack+0x20000c44>
     b0a:	01079713          	slli	a4,a5,0x10
     b0e:	8341                	srli	a4,a4,0x10
     b10:	86e19423          	sh	a4,-1944(gp) # 200001b8 <wIstr>
     b14:	01079713          	slli	a4,a5,0x10
     b18:	16075763          	bgez	a4,c86 <CTR_LP+0x1a4>
     b1c:	8681d783          	lhu	a5,-1944(gp) # 200001b8 <wIstr>
     b20:	843a                	mv	s0,a4
     b22:	8bbd                	andi	a5,a5,15
     b24:	84f18323          	sb	a5,-1978(gp) # 20000196 <EPindex>
     b28:	c0058693          	addi	a3,a1,-1024
     b2c:	30079663          	bnez	a5,e38 <CTR_LP+0x356>
     b30:	c005a703          	lw	a4,-1024(a1)
     b34:	85618793          	addi	a5,gp,-1962 # 200001a6 <SaveRState>
     b38:	0742                	slli	a4,a4,0x10
     b3a:	8341                	srli	a4,a4,0x10
     b3c:	a39a                	sh	a4,0(a5)
     b3e:	239a                	lhu	a4,0(a5)
     b40:	85818693          	addi	a3,gp,-1960 # 200001a8 <SaveTState>
     b44:	03077713          	andi	a4,a4,48
     b48:	a29a                	sh	a4,0(a3)
     b4a:	239a                	lhu	a4,0(a5)
     b4c:	668d                	lui	a3,0x3
     b4e:	6621                	lui	a2,0x8
     b50:	8f75                	and	a4,a4,a3
     b52:	a39a                	sh	a4,0(a5)
     b54:	c005a703          	lw	a4,-1024(a1)
     b58:	67a5                	lui	a5,0x9
     b5a:	fbf78793          	addi	a5,a5,-65 # 8fbf <_data_lma+0x4d33>
     b5e:	8f7d                	and	a4,a4,a5
     b60:	c005a783          	lw	a5,-1024(a1)
     b64:	66b1                	lui	a3,0xc
     b66:	f8f68693          	addi	a3,a3,-113 # bf8f <_data_lma+0x7d03>
     b6a:	8ff5                	and	a5,a5,a3
     b6c:	6689                	lui	a3,0x2
     b6e:	8fb5                	xor	a5,a5,a3
     b70:	02074713          	xori	a4,a4,32
     b74:	01071693          	slli	a3,a4,0x10
     b78:	08060613          	addi	a2,a2,128 # 8080 <_data_lma+0x3df4>
     b7c:	8f5d                	or	a4,a4,a5
     b7e:	8f51                	or	a4,a4,a2
     b80:	82c1                	srli	a3,a3,0x10
     b82:	c0e5a023          	sw	a4,-1024(a1)
     b86:	0136e733          	or	a4,a3,s3
     b8a:	0742                	slli	a4,a4,0x10
     b8c:	85618493          	addi	s1,gp,-1962 # 200001a6 <SaveRState>
     b90:	85818913          	addi	s2,gp,-1960 # 200001a8 <SaveTState>
     b94:	40006637          	lui	a2,0x40006
     b98:	02000593          	li	a1,32
     b9c:	8341                	srli	a4,a4,0x10
     b9e:	c0062683          	lw	a3,-1024(a2) # 40005c00 <_eusrstack+0x20000c00>
     ba2:	0306f693          	andi	a3,a3,48
     ba6:	0eb69363          	bne	a3,a1,c8c <CTR_LP+0x1aa>
     baa:	0137e7b3          	or	a5,a5,s3
     bae:	66c1                	lui	a3,0x10
     bb0:	07c2                	slli	a5,a5,0x10
     bb2:	40006637          	lui	a2,0x40006
     bb6:	16fd                	addi	a3,a3,-1
     bb8:	650d                	lui	a0,0x3
     bba:	6589                	lui	a1,0x2
     bbc:	83c1                	srli	a5,a5,0x10
     bbe:	c0062703          	lw	a4,-1024(a2) # 40005c00 <_eusrstack+0x20000c00>
     bc2:	c0060413          	addi	s0,a2,-1024
     bc6:	8f75                	and	a4,a4,a3
     bc8:	8f69                	and	a4,a4,a0
     bca:	0cb71463          	bne	a4,a1,c92 <CTR_LP+0x1b0>
     bce:	8681d783          	lhu	a5,-1944(gp) # 200001b8 <wIstr>
     bd2:	8bc1                	andi	a5,a5,16
     bd4:	ebe1                	bnez	a5,ca4 <CTR_LP+0x1c2>
     bd6:	401c                	lw	a5,0(s0)
     bd8:	69a5                	lui	s3,0x9
     bda:	f0f98713          	addi	a4,s3,-241 # 8f0f <_data_lma+0x4c83>
     bde:	8ff9                	and	a5,a5,a4
     be0:	c01c                	sw	a5,0(s0)
     be2:	3d8d                	jal	a54 <In0_Process>
     be4:	4018                	lw	a4,0(s0)
     be6:	4014                	lw	a3,0(s0)
     be8:	67b1                	lui	a5,0xc
     bea:	f8f78793          	addi	a5,a5,-113 # bf8f <_data_lma+0x7d03>
     bee:	8ff5                	and	a5,a5,a3
     bf0:	2096                	lhu	a3,0(s1)
     bf2:	fbf98993          	addi	s3,s3,-65
     bf6:	01377733          	and	a4,a4,s3
     bfa:	01369613          	slli	a2,a3,0x13
     bfe:	00065463          	bgez	a2,c06 <CTR_LP+0x124>
     c02:	6685                	lui	a3,0x1
     c04:	8fb5                	xor	a5,a5,a3
     c06:	2096                	lhu	a3,0(s1)
     c08:	01269613          	slli	a2,a3,0x12
     c0c:	00065463          	bgez	a2,c14 <CTR_LP+0x132>
     c10:	6689                	lui	a3,0x2
     c12:	8fb5                	xor	a5,a5,a3
     c14:	00095683          	lhu	a3,0(s2)
     c18:	8ac1                	andi	a3,a3,16
     c1a:	c299                	beqz	a3,c20 <CTR_LP+0x13e>
     c1c:	01074713          	xori	a4,a4,16
     c20:	00095683          	lhu	a3,0(s2)
     c24:	0206f693          	andi	a3,a3,32
     c28:	c299                	beqz	a3,c2e <CTR_LP+0x14c>
     c2a:	02074713          	xori	a4,a4,32
     c2e:	6621                	lui	a2,0x8
     c30:	01071693          	slli	a3,a4,0x10
     c34:	08060613          	addi	a2,a2,128 # 8080 <_data_lma+0x3df4>
     c38:	8f5d                	or	a4,a4,a5
     c3a:	8f51                	or	a4,a4,a2
     c3c:	40006637          	lui	a2,0x40006
     c40:	c0e62023          	sw	a4,-1024(a2) # 40005c00 <_eusrstack+0x20000c00>
     c44:	7761                	lui	a4,0xffff8
     c46:	82c1                	srli	a3,a3,0x10
     c48:	08070713          	addi	a4,a4,128 # ffff8080 <_eusrstack+0xdfff3080>
     c4c:	8f55                	or	a4,a4,a3
     c4e:	0742                	slli	a4,a4,0x10
     c50:	8341                	srli	a4,a4,0x10
     c52:	c0062683          	lw	a3,-1024(a2)
     c56:	00095583          	lhu	a1,0(s2)
     c5a:	0306f693          	andi	a3,a3,48
     c5e:	02b69d63          	bne	a3,a1,c98 <CTR_LP+0x1b6>
     c62:	7761                	lui	a4,0xffff8
     c64:	08070713          	addi	a4,a4,128 # ffff8080 <_eusrstack+0xdfff3080>
     c68:	8fd9                	or	a5,a5,a4
     c6a:	66c1                	lui	a3,0x10
     c6c:	07c2                	slli	a5,a5,0x10
     c6e:	40006637          	lui	a2,0x40006
     c72:	16fd                	addi	a3,a3,-1
     c74:	650d                	lui	a0,0x3
     c76:	83c1                	srli	a5,a5,0x10
     c78:	c0062703          	lw	a4,-1024(a2) # 40005c00 <_eusrstack+0x20000c00>
     c7c:	208e                	lhu	a1,0(s1)
     c7e:	8f75                	and	a4,a4,a3
     c80:	8f69                	and	a4,a4,a0
     c82:	00b71e63          	bne	a4,a1,c9e <CTR_LP+0x1bc>
     c86:	0141                	addi	sp,sp,16
     c88:	cb8ff06f          	j	140 <__riscv_restore_10>
     c8c:	c0e62023          	sw	a4,-1024(a2)
     c90:	b739                	j	b9e <CTR_LP+0xbc>
     c92:	c0f62023          	sw	a5,-1024(a2)
     c96:	b725                	j	bbe <CTR_LP+0xdc>
     c98:	c0e62023          	sw	a4,-1024(a2)
     c9c:	bf5d                	j	c52 <CTR_LP+0x170>
     c9e:	c0f62023          	sw	a5,-1024(a2)
     ca2:	bfd9                	j	c78 <CTR_LP+0x196>
     ca4:	401c                	lw	a5,0(s0)
     ca6:	6b85                	lui	s7,0x1
     ca8:	07c2                	slli	a5,a5,0x10
     caa:	83c1                	srli	a5,a5,0x10
     cac:	877c                	sh	a5,14(sp)
     cae:	873c                	lhu	a5,14(sp)
     cb0:	01479713          	slli	a4,a5,0x14
     cb4:	0c075063          	bgez	a4,d74 <CTR_LP+0x292>
     cb8:	401c                	lw	a5,0(s0)
     cba:	f8fb8713          	addi	a4,s7,-113 # f8f <SetEPRxStatus+0x3b>
     cbe:	8ff9                	and	a5,a5,a4
     cc0:	c01c                	sw	a5,0(s0)
     cc2:	98fff0ef          	jal	ra,650 <Setup0_Process>
     cc6:	4018                	lw	a4,0(s0)
     cc8:	67a5                	lui	a5,0x9
     cca:	fbf78793          	addi	a5,a5,-65 # 8fbf <_data_lma+0x4d33>
     cce:	4014                	lw	a3,0(s0)
     cd0:	8f7d                	and	a4,a4,a5
     cd2:	67b1                	lui	a5,0xc
     cd4:	f8f78793          	addi	a5,a5,-113 # bf8f <_data_lma+0x7d03>
     cd8:	8ff5                	and	a5,a5,a3
     cda:	2096                	lhu	a3,0(s1)
     cdc:	01369613          	slli	a2,a3,0x13
     ce0:	00065463          	bgez	a2,ce8 <CTR_LP+0x206>
     ce4:	0177c7b3          	xor	a5,a5,s7
     ce8:	2096                	lhu	a3,0(s1)
     cea:	01269613          	slli	a2,a3,0x12
     cee:	00065463          	bgez	a2,cf6 <CTR_LP+0x214>
     cf2:	6689                	lui	a3,0x2
     cf4:	8fb5                	xor	a5,a5,a3
     cf6:	00095683          	lhu	a3,0(s2)
     cfa:	8ac1                	andi	a3,a3,16
     cfc:	c299                	beqz	a3,d02 <CTR_LP+0x220>
     cfe:	01074713          	xori	a4,a4,16
     d02:	00095683          	lhu	a3,0(s2)
     d06:	0206f693          	andi	a3,a3,32
     d0a:	c299                	beqz	a3,d10 <CTR_LP+0x22e>
     d0c:	02074713          	xori	a4,a4,32
     d10:	6621                	lui	a2,0x8
     d12:	01071693          	slli	a3,a4,0x10
     d16:	08060613          	addi	a2,a2,128 # 8080 <_data_lma+0x3df4>
     d1a:	8f5d                	or	a4,a4,a5
     d1c:	8f51                	or	a4,a4,a2
     d1e:	40006637          	lui	a2,0x40006
     d22:	c0e62023          	sw	a4,-1024(a2) # 40005c00 <_eusrstack+0x20000c00>
     d26:	7761                	lui	a4,0xffff8
     d28:	82c1                	srli	a3,a3,0x10
     d2a:	08070713          	addi	a4,a4,128 # ffff8080 <_eusrstack+0xdfff3080>
     d2e:	8f55                	or	a4,a4,a3
     d30:	0742                	slli	a4,a4,0x10
     d32:	8341                	srli	a4,a4,0x10
     d34:	c0062683          	lw	a3,-1024(a2)
     d38:	00095583          	lhu	a1,0(s2)
     d3c:	0306f693          	andi	a3,a3,48
     d40:	02b69763          	bne	a3,a1,d6e <CTR_LP+0x28c>
     d44:	7761                	lui	a4,0xffff8
     d46:	08070713          	addi	a4,a4,128 # ffff8080 <_eusrstack+0xdfff3080>
     d4a:	8fd9                	or	a5,a5,a4
     d4c:	66c1                	lui	a3,0x10
     d4e:	07c2                	slli	a5,a5,0x10
     d50:	40006637          	lui	a2,0x40006
     d54:	16fd                	addi	a3,a3,-1
     d56:	650d                	lui	a0,0x3
     d58:	83c1                	srli	a5,a5,0x10
     d5a:	c0062703          	lw	a4,-1024(a2) # 40005c00 <_eusrstack+0x20000c00>
     d5e:	208e                	lhu	a1,0(s1)
     d60:	8f75                	and	a4,a4,a3
     d62:	8f69                	and	a4,a4,a0
     d64:	f2b701e3          	beq	a4,a1,c86 <CTR_LP+0x1a4>
     d68:	c0f62023          	sw	a5,-1024(a2)
     d6c:	b7fd                	j	d5a <CTR_LP+0x278>
     d6e:	c0e62023          	sw	a4,-1024(a2)
     d72:	b7c9                	j	d34 <CTR_LP+0x252>
     d74:	873c                	lhu	a5,14(sp)
     d76:	07c2                	slli	a5,a5,0x10
     d78:	87c1                	srai	a5,a5,0x10
     d7a:	d807d4e3          	bgez	a5,b02 <CTR_LP+0x20>
     d7e:	401c                	lw	a5,0(s0)
     d80:	f8fb8713          	addi	a4,s7,-113
     d84:	8ff9                	and	a5,a5,a4
     d86:	c01c                	sw	a5,0(s0)
     d88:	3e65                	jal	940 <Out0_Process>
     d8a:	4018                	lw	a4,0(s0)
     d8c:	67a5                	lui	a5,0x9
     d8e:	fbf78793          	addi	a5,a5,-65 # 8fbf <_data_lma+0x4d33>
     d92:	4014                	lw	a3,0(s0)
     d94:	8f7d                	and	a4,a4,a5
     d96:	67b1                	lui	a5,0xc
     d98:	f8f78793          	addi	a5,a5,-113 # bf8f <_data_lma+0x7d03>
     d9c:	8ff5                	and	a5,a5,a3
     d9e:	2096                	lhu	a3,0(s1)
     da0:	01369613          	slli	a2,a3,0x13
     da4:	00065463          	bgez	a2,dac <CTR_LP+0x2ca>
     da8:	0177c7b3          	xor	a5,a5,s7
     dac:	2096                	lhu	a3,0(s1)
     dae:	01269613          	slli	a2,a3,0x12
     db2:	00065463          	bgez	a2,dba <CTR_LP+0x2d8>
     db6:	6689                	lui	a3,0x2
     db8:	8fb5                	xor	a5,a5,a3
     dba:	00095683          	lhu	a3,0(s2)
     dbe:	8ac1                	andi	a3,a3,16
     dc0:	c299                	beqz	a3,dc6 <CTR_LP+0x2e4>
     dc2:	01074713          	xori	a4,a4,16
     dc6:	00095683          	lhu	a3,0(s2)
     dca:	0206f693          	andi	a3,a3,32
     dce:	c299                	beqz	a3,dd4 <CTR_LP+0x2f2>
     dd0:	02074713          	xori	a4,a4,32
     dd4:	6621                	lui	a2,0x8
     dd6:	01071693          	slli	a3,a4,0x10
     dda:	08060613          	addi	a2,a2,128 # 8080 <_data_lma+0x3df4>
     dde:	8f5d                	or	a4,a4,a5
     de0:	8f51                	or	a4,a4,a2
     de2:	40006637          	lui	a2,0x40006
     de6:	c0e62023          	sw	a4,-1024(a2) # 40005c00 <_eusrstack+0x20000c00>
     dea:	7761                	lui	a4,0xffff8
     dec:	82c1                	srli	a3,a3,0x10
     dee:	08070713          	addi	a4,a4,128 # ffff8080 <_eusrstack+0xdfff3080>
     df2:	8f55                	or	a4,a4,a3
     df4:	0742                	slli	a4,a4,0x10
     df6:	8341                	srli	a4,a4,0x10
     df8:	c0062683          	lw	a3,-1024(a2)
     dfc:	00095583          	lhu	a1,0(s2)
     e00:	0306f693          	andi	a3,a3,48
     e04:	02b69763          	bne	a3,a1,e32 <CTR_LP+0x350>
     e08:	7761                	lui	a4,0xffff8
     e0a:	08070713          	addi	a4,a4,128 # ffff8080 <_eusrstack+0xdfff3080>
     e0e:	8fd9                	or	a5,a5,a4
     e10:	66c1                	lui	a3,0x10
     e12:	07c2                	slli	a5,a5,0x10
     e14:	40006637          	lui	a2,0x40006
     e18:	16fd                	addi	a3,a3,-1
     e1a:	650d                	lui	a0,0x3
     e1c:	83c1                	srli	a5,a5,0x10
     e1e:	c0062703          	lw	a4,-1024(a2) # 40005c00 <_eusrstack+0x20000c00>
     e22:	208e                	lhu	a1,0(s1)
     e24:	8f75                	and	a4,a4,a3
     e26:	8f69                	and	a4,a4,a0
     e28:	e4b70fe3          	beq	a4,a1,c86 <CTR_LP+0x1a4>
     e2c:	c0f62023          	sw	a5,-1024(a2)
     e30:	b7fd                	j	e1e <CTR_LP+0x33c>
     e32:	c0e62023          	sw	a4,-1024(a2)
     e36:	b7c9                	j	df8 <CTR_LP+0x316>
     e38:	00279713          	slli	a4,a5,0x2
     e3c:	9736                	add	a4,a4,a3
     e3e:	4314                	lw	a3,0(a4)
     e40:	06c2                	slli	a3,a3,0x10
     e42:	82c1                	srli	a3,a3,0x10
     e44:	8774                	sh	a3,14(sp)
     e46:	8734                	lhu	a3,14(sp)
     e48:	06c2                	slli	a3,a3,0x10
     e4a:	86c1                	srai	a3,a3,0x10
     e4c:	0006dd63          	bgez	a3,e66 <CTR_LP+0x384>
     e50:	17fd                	addi	a5,a5,-1
     e52:	4314                	lw	a3,0(a4)
     e54:	078a                	slli	a5,a5,0x2
     e56:	6605                	lui	a2,0x1
     e58:	97d6                	add	a5,a5,s5
     e5a:	f8f60613          	addi	a2,a2,-113 # f8f <SetEPRxStatus+0x3b>
     e5e:	439c                	lw	a5,0(a5)
     e60:	8ef1                	and	a3,a3,a2
     e62:	c314                	sw	a3,0(a4)
     e64:	9782                	jalr	a5
     e66:	873c                	lhu	a5,14(sp)
     e68:	0807f793          	andi	a5,a5,128
     e6c:	c8078be3          	beqz	a5,b02 <CTR_LP+0x20>
     e70:	8461c783          	lbu	a5,-1978(gp) # 20000196 <EPindex>
     e74:	400066b7          	lui	a3,0x40006
     e78:	c0068693          	addi	a3,a3,-1024 # 40005c00 <_eusrstack+0x20000c00>
     e7c:	00279713          	slli	a4,a5,0x2
     e80:	9736                	add	a4,a4,a3
     e82:	17fd                	addi	a5,a5,-1
     e84:	4314                	lw	a3,0(a4)
     e86:	078a                	slli	a5,a5,0x2
     e88:	97d2                	add	a5,a5,s4
     e8a:	6625                	lui	a2,0x9
     e8c:	f0f60613          	addi	a2,a2,-241 # 8f0f <_data_lma+0x4c83>
     e90:	439c                	lw	a5,0(a5)
     e92:	8ef1                	and	a3,a3,a2
     e94:	c314                	sw	a3,0(a4)
     e96:	9782                	jalr	a5
     e98:	b1ad                	j	b02 <CTR_LP+0x20>

00000e9a <UserToPMABufferCopy>:
     e9a:	200037b7          	lui	a5,0x20003
     e9e:	0605                	addi	a2,a2,1
     ea0:	95be                	add	a1,a1,a5
     ea2:	8605                	srai	a2,a2,0x1
     ea4:	0586                	slli	a1,a1,0x1
     ea6:	e211                	bnez	a2,eaa <UserToPMABufferCopy+0x10>
     ea8:	8082                	ret
     eaa:	311c                	lbu	a5,1(a0)
     eac:	2118                	lbu	a4,0(a0)
     eae:	0591                	addi	a1,a1,4
     eb0:	07a2                	slli	a5,a5,0x8
     eb2:	8fd9                	or	a5,a5,a4
     eb4:	fef59e23          	sh	a5,-4(a1) # 1ffc <SD_WriteBlocks+0xa8>
     eb8:	0509                	addi	a0,a0,2
     eba:	167d                	addi	a2,a2,-1
     ebc:	b7ed                	j	ea6 <UserToPMABufferCopy+0xc>

00000ebe <PMAToUserBufferCopy>:
     ebe:	200037b7          	lui	a5,0x20003
     ec2:	0605                	addi	a2,a2,1
     ec4:	95be                	add	a1,a1,a5
     ec6:	8605                	srai	a2,a2,0x1
     ec8:	0586                	slli	a1,a1,0x1
     eca:	e211                	bnez	a2,ece <PMAToUserBufferCopy+0x10>
     ecc:	8082                	ret
     ece:	419c                	lw	a5,0(a1)
     ed0:	0509                	addi	a0,a0,2
     ed2:	167d                	addi	a2,a2,-1
     ed4:	fef51f23          	sh	a5,-2(a0) # 2ffe <__swbuf_r+0x22>
     ed8:	0591                	addi	a1,a1,4
     eda:	bfc5                	j	eca <PMAToUserBufferCopy+0xc>

00000edc <SetBTABLE>:
     edc:	9961                	andi	a0,a0,-8
     ede:	0542                	slli	a0,a0,0x10
     ee0:	8141                	srli	a0,a0,0x10
     ee2:	400067b7          	lui	a5,0x40006
     ee6:	c4a7a823          	sw	a0,-944(a5) # 40005c50 <_eusrstack+0x20000c50>
     eea:	8082                	ret

00000eec <SetEPType>:
     eec:	400067b7          	lui	a5,0x40006
     ef0:	c0078793          	addi	a5,a5,-1024 # 40005c00 <_eusrstack+0x20000c00>
     ef4:	050a                	slli	a0,a0,0x2
     ef6:	953e                	add	a0,a0,a5
     ef8:	411c                	lw	a5,0(a0)
     efa:	7765                	lui	a4,0xffff9
     efc:	98f70713          	addi	a4,a4,-1649 # ffff898f <_eusrstack+0xdfff398f>
     f00:	8ff9                	and	a5,a5,a4
     f02:	8ddd                	or	a1,a1,a5
     f04:	05c2                	slli	a1,a1,0x10
     f06:	81c1                	srli	a1,a1,0x10
     f08:	c10c                	sw	a1,0(a0)
     f0a:	8082                	ret

00000f0c <SetEPTxStatus>:
     f0c:	400067b7          	lui	a5,0x40006
     f10:	c0078793          	addi	a5,a5,-1024 # 40005c00 <_eusrstack+0x20000c00>
     f14:	050a                	slli	a0,a0,0x2
     f16:	953e                	add	a0,a0,a5
     f18:	411c                	lw	a5,0(a0)
     f1a:	7765                	lui	a4,0xffff9
     f1c:	fbf70713          	addi	a4,a4,-65 # ffff8fbf <_eusrstack+0xdfff3fbf>
     f20:	8ff9                	and	a5,a5,a4
     f22:	07c2                	slli	a5,a5,0x10
     f24:	0105f713          	andi	a4,a1,16
     f28:	83c1                	srli	a5,a5,0x10
     f2a:	c319                	beqz	a4,f30 <SetEPTxStatus+0x24>
     f2c:	0107c793          	xori	a5,a5,16
     f30:	0205f713          	andi	a4,a1,32
     f34:	c319                	beqz	a4,f3a <SetEPTxStatus+0x2e>
     f36:	0207c793          	xori	a5,a5,32
     f3a:	7761                	lui	a4,0xffff8
     f3c:	08070713          	addi	a4,a4,128 # ffff8080 <_eusrstack+0xdfff3080>
     f40:	8fd9                	or	a5,a5,a4
     f42:	07c2                	slli	a5,a5,0x10
     f44:	83c1                	srli	a5,a5,0x10
     f46:	c11c                	sw	a5,0(a0)
     f48:	4118                	lw	a4,0(a0)
     f4a:	03077713          	andi	a4,a4,48
     f4e:	feb71ce3          	bne	a4,a1,f46 <SetEPTxStatus+0x3a>
     f52:	8082                	ret

00000f54 <SetEPRxStatus>:
     f54:	400067b7          	lui	a5,0x40006
     f58:	c0078793          	addi	a5,a5,-1024 # 40005c00 <_eusrstack+0x20000c00>
     f5c:	050a                	slli	a0,a0,0x2
     f5e:	953e                	add	a0,a0,a5
     f60:	411c                	lw	a5,0(a0)
     f62:	7771                	lui	a4,0xffffc
     f64:	f8f70713          	addi	a4,a4,-113 # ffffbf8f <_eusrstack+0xdfff6f8f>
     f68:	8ff9                	and	a5,a5,a4
     f6a:	07c2                	slli	a5,a5,0x10
     f6c:	01359713          	slli	a4,a1,0x13
     f70:	83c1                	srli	a5,a5,0x10
     f72:	00075463          	bgez	a4,f7a <SetEPRxStatus+0x26>
     f76:	6705                	lui	a4,0x1
     f78:	8fb9                	xor	a5,a5,a4
     f7a:	01259713          	slli	a4,a1,0x12
     f7e:	00075463          	bgez	a4,f86 <SetEPRxStatus+0x32>
     f82:	6709                	lui	a4,0x2
     f84:	8fb9                	xor	a5,a5,a4
     f86:	7761                	lui	a4,0xffff8
     f88:	08070713          	addi	a4,a4,128 # ffff8080 <_eusrstack+0xdfff3080>
     f8c:	8fd9                	or	a5,a5,a4
     f8e:	07c2                	slli	a5,a5,0x10
     f90:	83c1                	srli	a5,a5,0x10
     f92:	66c1                	lui	a3,0x10
     f94:	c11c                	sw	a5,0(a0)
     f96:	16fd                	addi	a3,a3,-1
     f98:	660d                	lui	a2,0x3
     f9a:	4118                	lw	a4,0(a0)
     f9c:	8f75                	and	a4,a4,a3
     f9e:	8f71                	and	a4,a4,a2
     fa0:	00b71363          	bne	a4,a1,fa6 <SetEPRxStatus+0x52>
     fa4:	8082                	ret
     fa6:	c11c                	sw	a5,0(a0)
     fa8:	bfcd                	j	f9a <SetEPRxStatus+0x46>

00000faa <SetEPRxValid>:
     faa:	400067b7          	lui	a5,0x40006
     fae:	c0078793          	addi	a5,a5,-1024 # 40005c00 <_eusrstack+0x20000c00>
     fb2:	050a                	slli	a0,a0,0x2
     fb4:	953e                	add	a0,a0,a5
     fb6:	411c                	lw	a5,0(a0)
     fb8:	7771                	lui	a4,0xffffc
     fba:	f8f70713          	addi	a4,a4,-113 # ffffbf8f <_eusrstack+0xdfff6f8f>
     fbe:	8ff9                	and	a5,a5,a4
     fc0:	07c2                	slli	a5,a5,0x10
     fc2:	670d                	lui	a4,0x3
     fc4:	83c1                	srli	a5,a5,0x10
     fc6:	8fb9                	xor	a5,a5,a4
     fc8:	7761                	lui	a4,0xffff8
     fca:	08070713          	addi	a4,a4,128 # ffff8080 <_eusrstack+0xdfff3080>
     fce:	8fd9                	or	a5,a5,a4
     fd0:	07c2                	slli	a5,a5,0x10
     fd2:	83c1                	srli	a5,a5,0x10
     fd4:	66c1                	lui	a3,0x10
     fd6:	c11c                	sw	a5,0(a0)
     fd8:	16fd                	addi	a3,a3,-1
     fda:	660d                	lui	a2,0x3
     fdc:	4118                	lw	a4,0(a0)
     fde:	8f75                	and	a4,a4,a3
     fe0:	8f71                	and	a4,a4,a2
     fe2:	00c71363          	bne	a4,a2,fe8 <SetEPRxValid+0x3e>
     fe6:	8082                	ret
     fe8:	c11c                	sw	a5,0(a0)
     fea:	bfcd                	j	fdc <SetEPRxValid+0x32>

00000fec <ClearEP_KIND>:
     fec:	400067b7          	lui	a5,0x40006
     ff0:	c0078793          	addi	a5,a5,-1024 # 40005c00 <_eusrstack+0x20000c00>
     ff4:	050a                	slli	a0,a0,0x2
     ff6:	953e                	add	a0,a0,a5
     ff8:	411c                	lw	a5,0(a0)
     ffa:	6705                	lui	a4,0x1
     ffc:	e0f70713          	addi	a4,a4,-497 # e0f <CTR_LP+0x32d>
    1000:	8ff9                	and	a5,a5,a4
    1002:	7761                	lui	a4,0xffff8
    1004:	08070713          	addi	a4,a4,128 # ffff8080 <_eusrstack+0xdfff3080>
    1008:	8fd9                	or	a5,a5,a4
    100a:	07c2                	slli	a5,a5,0x10
    100c:	83c1                	srli	a5,a5,0x10
    100e:	c11c                	sw	a5,0(a0)
    1010:	8082                	ret

00001012 <Clear_Status_Out>:
    1012:	91eff2ef          	jal	t0,130 <__riscv_save_0>
    1016:	3fd9                	jal	fec <ClearEP_KIND>
    1018:	93cff06f          	j	154 <__riscv_restore_0>

0000101c <ClearDTOG_RX>:
    101c:	400067b7          	lui	a5,0x40006
    1020:	c0078793          	addi	a5,a5,-1024 # 40005c00 <_eusrstack+0x20000c00>
    1024:	050a                	slli	a0,a0,0x2
    1026:	953e                	add	a0,a0,a5
    1028:	4114                	lw	a3,0(a0)
    102a:	67c1                	lui	a5,0x10
    102c:	fff78713          	addi	a4,a5,-1 # ffff <_data_lma+0xbd73>
    1030:	01169793          	slli	a5,a3,0x11
    1034:	0007dd63          	bgez	a5,104e <ClearDTOG_RX+0x32>
    1038:	411c                	lw	a5,0(a0)
    103a:	8ff9                	and	a5,a5,a4
    103c:	6705                	lui	a4,0x1
    103e:	f0f70713          	addi	a4,a4,-241 # f0f <SetEPTxStatus+0x3>
    1042:	8ff9                	and	a5,a5,a4
    1044:	6731                	lui	a4,0xc
    1046:	08070713          	addi	a4,a4,128 # c080 <_data_lma+0x7df4>
    104a:	8fd9                	or	a5,a5,a4
    104c:	c11c                	sw	a5,0(a0)
    104e:	8082                	ret

00001050 <ClearDTOG_TX>:
    1050:	400067b7          	lui	a5,0x40006
    1054:	c0078793          	addi	a5,a5,-1024 # 40005c00 <_eusrstack+0x20000c00>
    1058:	050a                	slli	a0,a0,0x2
    105a:	953e                	add	a0,a0,a5
    105c:	411c                	lw	a5,0(a0)
    105e:	0407f793          	andi	a5,a5,64
    1062:	cf91                	beqz	a5,107e <ClearDTOG_TX+0x2e>
    1064:	411c                	lw	a5,0(a0)
    1066:	6741                	lui	a4,0x10
    1068:	177d                	addi	a4,a4,-1
    106a:	8ff9                	and	a5,a5,a4
    106c:	6705                	lui	a4,0x1
    106e:	f0f70713          	addi	a4,a4,-241 # f0f <SetEPTxStatus+0x3>
    1072:	8ff9                	and	a5,a5,a4
    1074:	6721                	lui	a4,0x8
    1076:	0c070713          	addi	a4,a4,192 # 80c0 <_data_lma+0x3e34>
    107a:	8fd9                	or	a5,a5,a4
    107c:	c11c                	sw	a5,0(a0)
    107e:	8082                	ret

00001080 <SetEPTxAddr>:
    1080:	400067b7          	lui	a5,0x40006
    1084:	c507a783          	lw	a5,-944(a5) # 40005c50 <_eusrstack+0x20000c50>
    1088:	050e                	slli	a0,a0,0x3
    108a:	8185                	srli	a1,a1,0x1
    108c:	07c2                	slli	a5,a5,0x10
    108e:	83c1                	srli	a5,a5,0x10
    1090:	953e                	add	a0,a0,a5
    1092:	200037b7          	lui	a5,0x20003
    1096:	953e                	add	a0,a0,a5
    1098:	0506                	slli	a0,a0,0x1
    109a:	0586                	slli	a1,a1,0x1
    109c:	c10c                	sw	a1,0(a0)
    109e:	8082                	ret

000010a0 <SetEPRxAddr>:
    10a0:	400067b7          	lui	a5,0x40006
    10a4:	c507a783          	lw	a5,-944(a5) # 40005c50 <_eusrstack+0x20000c50>
    10a8:	050e                	slli	a0,a0,0x3
    10aa:	8185                	srli	a1,a1,0x1
    10ac:	07c2                	slli	a5,a5,0x10
    10ae:	83c1                	srli	a5,a5,0x10
    10b0:	953e                	add	a0,a0,a5
    10b2:	200037b7          	lui	a5,0x20003
    10b6:	0791                	addi	a5,a5,4
    10b8:	953e                	add	a0,a0,a5
    10ba:	0506                	slli	a0,a0,0x1
    10bc:	0586                	slli	a1,a1,0x1
    10be:	c10c                	sw	a1,0(a0)
    10c0:	8082                	ret

000010c2 <GetEPTxAddr>:
    10c2:	400067b7          	lui	a5,0x40006
    10c6:	c507a783          	lw	a5,-944(a5) # 40005c50 <_eusrstack+0x20000c50>
    10ca:	050e                	slli	a0,a0,0x3
    10cc:	07c2                	slli	a5,a5,0x10
    10ce:	83c1                	srli	a5,a5,0x10
    10d0:	953e                	add	a0,a0,a5
    10d2:	200037b7          	lui	a5,0x20003
    10d6:	953e                	add	a0,a0,a5
    10d8:	0506                	slli	a0,a0,0x1
    10da:	210a                	lhu	a0,0(a0)
    10dc:	8082                	ret

000010de <GetEPRxAddr>:
    10de:	400067b7          	lui	a5,0x40006
    10e2:	c507a783          	lw	a5,-944(a5) # 40005c50 <_eusrstack+0x20000c50>
    10e6:	050e                	slli	a0,a0,0x3
    10e8:	07c2                	slli	a5,a5,0x10
    10ea:	83c1                	srli	a5,a5,0x10
    10ec:	953e                	add	a0,a0,a5
    10ee:	200037b7          	lui	a5,0x20003
    10f2:	0791                	addi	a5,a5,4
    10f4:	953e                	add	a0,a0,a5
    10f6:	0506                	slli	a0,a0,0x1
    10f8:	210a                	lhu	a0,0(a0)
    10fa:	8082                	ret

000010fc <SetEPTxCount>:
    10fc:	400067b7          	lui	a5,0x40006
    1100:	c507a783          	lw	a5,-944(a5) # 40005c50 <_eusrstack+0x20000c50>
    1104:	050e                	slli	a0,a0,0x3
    1106:	07c2                	slli	a5,a5,0x10
    1108:	83c1                	srli	a5,a5,0x10
    110a:	953e                	add	a0,a0,a5
    110c:	200037b7          	lui	a5,0x20003
    1110:	0789                	addi	a5,a5,2
    1112:	953e                	add	a0,a0,a5
    1114:	0506                	slli	a0,a0,0x1
    1116:	c10c                	sw	a1,0(a0)
    1118:	8082                	ret

0000111a <SetEPRxCount>:
    111a:	400067b7          	lui	a5,0x40006
    111e:	c507a783          	lw	a5,-944(a5) # 40005c50 <_eusrstack+0x20000c50>
    1122:	00351713          	slli	a4,a0,0x3
    1126:	07c2                	slli	a5,a5,0x10
    1128:	83c1                	srli	a5,a5,0x10
    112a:	97ba                	add	a5,a5,a4
    112c:	20003737          	lui	a4,0x20003
    1130:	0719                	addi	a4,a4,6
    1132:	97ba                	add	a5,a5,a4
    1134:	03e00713          	li	a4,62
    1138:	0786                	slli	a5,a5,0x1
    113a:	04b77363          	bgeu	a4,a1,1180 <SetEPRxCount+0x66>
    113e:	0055d713          	srli	a4,a1,0x5
    1142:	89fd                	andi	a1,a1,31
    1144:	e581                	bnez	a1,114c <SetEPRxCount+0x32>
    1146:	177d                	addi	a4,a4,-1
    1148:	0742                	slli	a4,a4,0x10
    114a:	8341                	srli	a4,a4,0x10
    114c:	072a                	slli	a4,a4,0xa
    114e:	66a1                	lui	a3,0x8
    1150:	8f55                	or	a4,a4,a3
    1152:	c398                	sw	a4,0(a5)
    1154:	e50d                	bnez	a0,117e <SetEPRxCount+0x64>
    1156:	200007b7          	lui	a5,0x20000
    115a:	0647c783          	lbu	a5,100(a5) # 20000064 <Device_Property+0x2c>
    115e:	03e00713          	li	a4,62
    1162:	02f77663          	bgeu	a4,a5,118e <SetEPRxCount+0x74>
    1166:	0057d713          	srli	a4,a5,0x5
    116a:	8bfd                	andi	a5,a5,31
    116c:	e781                	bnez	a5,1174 <SetEPRxCount+0x5a>
    116e:	177d                	addi	a4,a4,-1
    1170:	0742                	slli	a4,a4,0x10
    1172:	8341                	srli	a4,a4,0x10
    1174:	072a                	slli	a4,a4,0xa
    1176:	77e1                	lui	a5,0xffff8
    1178:	8f5d                	or	a4,a4,a5
    117a:	84e19e23          	sh	a4,-1956(gp) # 200001ac <Ep0RxBlks>
    117e:	8082                	ret
    1180:	0015d713          	srli	a4,a1,0x1
    1184:	8985                	andi	a1,a1,1
    1186:	c191                	beqz	a1,118a <SetEPRxCount+0x70>
    1188:	0705                	addi	a4,a4,1
    118a:	072a                	slli	a4,a4,0xa
    118c:	b7d9                	j	1152 <SetEPRxCount+0x38>
    118e:	0017d713          	srli	a4,a5,0x1
    1192:	8b85                	andi	a5,a5,1
    1194:	c391                	beqz	a5,1198 <SetEPRxCount+0x7e>
    1196:	0705                	addi	a4,a4,1
    1198:	072a                	slli	a4,a4,0xa
    119a:	b7c5                	j	117a <SetEPRxCount+0x60>

0000119c <GetEPRxCount>:
    119c:	400067b7          	lui	a5,0x40006
    11a0:	c507a783          	lw	a5,-944(a5) # 40005c50 <_eusrstack+0x20000c50>
    11a4:	050e                	slli	a0,a0,0x3
    11a6:	07c2                	slli	a5,a5,0x10
    11a8:	83c1                	srli	a5,a5,0x10
    11aa:	953e                	add	a0,a0,a5
    11ac:	200037b7          	lui	a5,0x20003
    11b0:	0799                	addi	a5,a5,6
    11b2:	953e                	add	a0,a0,a5
    11b4:	0506                	slli	a0,a0,0x1
    11b6:	4108                	lw	a0,0(a0)
    11b8:	3ff57513          	andi	a0,a0,1023
    11bc:	8082                	ret

000011be <ByteSwap>:
    11be:	00855793          	srli	a5,a0,0x8
    11c2:	0ff57513          	andi	a0,a0,255
    11c6:	0522                	slli	a0,a0,0x8
    11c8:	8d5d                	or	a0,a0,a5
    11ca:	8082                	ret

000011cc <USB_SIL_Init>:
    11cc:	40006737          	lui	a4,0x40006
    11d0:	77f1                	lui	a5,0xffffc
    11d2:	c4072223          	sw	zero,-956(a4) # 40005c44 <_eusrstack+0x20000c44>
    11d6:	f0078793          	addi	a5,a5,-256 # ffffbf00 <_eusrstack+0xdfff6f00>
    11da:	84f19a23          	sh	a5,-1964(gp) # 200001a4 <wInterrupt_Mask>
    11de:	67b1                	lui	a5,0xc
    11e0:	f0078793          	addi	a5,a5,-256 # bf00 <_data_lma+0x7c74>
    11e4:	c4f72023          	sw	a5,-960(a4)
    11e8:	4501                	li	a0,0
    11ea:	8082                	ret

000011ec <USB_SIL_Write>:
    11ec:	f45fe2ef          	jal	t0,130 <__riscv_save_0>
    11f0:	8432                	mv	s0,a2
    11f2:	07f57493          	andi	s1,a0,127
    11f6:	8526                	mv	a0,s1
    11f8:	0442                	slli	s0,s0,0x10
    11fa:	892e                	mv	s2,a1
    11fc:	8041                	srli	s0,s0,0x10
    11fe:	35d1                	jal	10c2 <GetEPTxAddr>
    1200:	8622                	mv	a2,s0
    1202:	85aa                	mv	a1,a0
    1204:	854a                	mv	a0,s2
    1206:	3951                	jal	e9a <UserToPMABufferCopy>
    1208:	8526                	mv	a0,s1
    120a:	85a2                	mv	a1,s0
    120c:	3dc5                	jal	10fc <SetEPTxCount>
    120e:	4501                	li	a0,0
    1210:	f45fe06f          	j	154 <__riscv_restore_0>

00001214 <USB_SIL_Read>:
    1214:	f1dfe2ef          	jal	t0,130 <__riscv_save_0>
    1218:	07f57493          	andi	s1,a0,127
    121c:	8526                	mv	a0,s1
    121e:	892e                	mv	s2,a1
    1220:	3fb5                	jal	119c <GetEPRxCount>
    1222:	842a                	mv	s0,a0
    1224:	8526                	mv	a0,s1
    1226:	3d65                	jal	10de <GetEPRxAddr>
    1228:	85aa                	mv	a1,a0
    122a:	8622                	mv	a2,s0
    122c:	854a                	mv	a0,s2
    122e:	3941                	jal	ebe <PMAToUserBufferCopy>
    1230:	8522                	mv	a0,s0
    1232:	f23fe06f          	j	154 <__riscv_restore_0>

00001236 <USBWakeUp_IRQHandler>:
    1236:	00040537          	lui	a0,0x40
    123a:	73c010ef          	jal	ra,2976 <EXTI_ClearITPendingBit>
    123e:	30200073          	mret

00001242 <USB_LP_CAN1_RX0_IRQHandler>:
    1242:	22d9                	jal	1408 <USB_Istr>
    1244:	30200073          	mret

00001248 <Set_USBConfig>:
    1248:	ee9fe2ef          	jal	t0,130 <__riscv_save_0>
    124c:	1101                	addi	sp,sp,-32
    124e:	0068                	addi	a0,sp,12
    1250:	c602                	sw	zero,12(sp)
    1252:	c802                	sw	zero,16(sp)
    1254:	ca02                	sw	zero,20(sp)
    1256:	cc02                	sw	zero,24(sp)
    1258:	ce02                	sw	zero,28(sp)
    125a:	08d010ef          	jal	ra,2ae6 <RCC_GetClocksFreq>
    125e:	4732                	lw	a4,12(sp)
    1260:	089547b7          	lui	a5,0x8954
    1264:	40078793          	addi	a5,a5,1024 # 8954400 <_data_lma+0x8950174>
    1268:	4509                	li	a0,2
    126a:	02f70063          	beq	a4,a5,128a <Set_USBConfig+0x42>
    126e:	05b8e7b7          	lui	a5,0x5b8e
    1272:	80078793          	addi	a5,a5,-2048 # 5b8d800 <_data_lma+0x5b89574>
    1276:	4505                	li	a0,1
    1278:	00f70963          	beq	a4,a5,128a <Set_USBConfig+0x42>
    127c:	02dc77b7          	lui	a5,0x2dc7
    1280:	c0078793          	addi	a5,a5,-1024 # 2dc6c00 <_data_lma+0x2dc2974>
    1284:	00f71563          	bne	a4,a5,128e <Set_USBConfig+0x46>
    1288:	4501                	li	a0,0
    128a:	043010ef          	jal	ra,2acc <RCC_USBCLKConfig>
    128e:	4585                	li	a1,1
    1290:	00800537          	lui	a0,0x800
    1294:	12f010ef          	jal	ra,2bc2 <RCC_APB1PeriphClockCmd>
    1298:	6105                	addi	sp,sp,32
    129a:	ebbfe06f          	j	154 <__riscv_restore_0>

0000129e <Enter_LowPowerMode>:
    129e:	e93fe2ef          	jal	t0,130 <__riscv_save_0>
    12a2:	00004537          	lui	a0,0x4
    12a6:	08850513          	addi	a0,a0,136 # 4088 <_read+0xc>
    12aa:	527010ef          	jal	ra,2fd0 <puts>
    12ae:	470d                	li	a4,3
    12b0:	86e1aa23          	sw	a4,-1932(gp) # 200001c4 <bDeviceState>
    12b4:	ea1fe06f          	j	154 <__riscv_restore_0>

000012b8 <Leave_LowPowerMode>:
    12b8:	e79fe2ef          	jal	t0,130 <__riscv_save_0>
    12bc:	00004537          	lui	a0,0x4
    12c0:	0a450513          	addi	a0,a0,164 # 40a4 <_read+0x28>
    12c4:	50d010ef          	jal	ra,2fd0 <puts>
    12c8:	8c21c703          	lbu	a4,-1854(gp) # 20000212 <Device_Info+0xa>
    12cc:	c711                	beqz	a4,12d8 <Leave_LowPowerMode+0x20>
    12ce:	4715                	li	a4,5
    12d0:	86e1aa23          	sw	a4,-1932(gp) # 200001c4 <bDeviceState>
    12d4:	e81fe06f          	j	154 <__riscv_restore_0>
    12d8:	4705                	li	a4,1
    12da:	bfdd                	j	12d0 <Leave_LowPowerMode+0x18>

000012dc <USB_Interrupts_Config>:
    12dc:	e55fe2ef          	jal	t0,130 <__riscv_save_0>
    12e0:	1101                	addi	sp,sp,-32
    12e2:	00040537          	lui	a0,0x40
    12e6:	690010ef          	jal	ra,2976 <EXTI_ClearITPendingBit>
    12ea:	000407b7          	lui	a5,0x40
    12ee:	4405                	li	s0,1
    12f0:	c83e                	sw	a5,16(sp)
    12f2:	0808                	addi	a0,sp,16
    12f4:	47c1                	li	a5,16
    12f6:	cc3e                	sw	a5,24(sp)
    12f8:	ce22                	sw	s0,28(sp)
    12fa:	ca02                	sw	zero,20(sp)
    12fc:	610010ef          	jal	ra,290c <EXTI_Init>
    1300:	12400793          	li	a5,292
    1304:	0028                	addi	a0,sp,8
    1306:	847c                	sh	a5,8(sp)
    1308:	c622                	sw	s0,12(sp)
    130a:	00010523          	sb	zero,10(sp)
    130e:	76a010ef          	jal	ra,2a78 <NVIC_Init>
    1312:	03a00793          	li	a5,58
    1316:	0028                	addi	a0,sp,8
    1318:	847c                	sh	a5,8(sp)
    131a:	75e010ef          	jal	ra,2a78 <NVIC_Init>
    131e:	6105                	addi	sp,sp,32
    1320:	e35fe06f          	j	154 <__riscv_restore_0>

00001324 <USB_Port_Set>:
    1324:	e0dfe2ef          	jal	t0,130 <__riscv_save_0>
    1328:	84aa                	mv	s1,a0
    132a:	842e                	mv	s0,a1
    132c:	4511                	li	a0,4
    132e:	4585                	li	a1,1
    1330:	075010ef          	jal	ra,2ba4 <RCC_APB2PeriphClockCmd>
    1334:	ccb1                	beqz	s1,1390 <USB_Port_Set+0x6c>
    1336:	400066b7          	lui	a3,0x40006
    133a:	c406a783          	lw	a5,-960(a3) # 40005c40 <_eusrstack+0x20000c40>
    133e:	6741                	lui	a4,0x10
    1340:	1775                	addi	a4,a4,-3
    1342:	8ff9                	and	a5,a5,a4
    1344:	c4f6a023          	sw	a5,-960(a3)
    1348:	400117b7          	lui	a5,0x40011
    134c:	8047a703          	lw	a4,-2044(a5) # 40010804 <_eusrstack+0x2000b804>
    1350:	fff016b7          	lui	a3,0xfff01
    1354:	16fd                	addi	a3,a3,-1
    1356:	8f75                	and	a4,a4,a3
    1358:	80e7a223          	sw	a4,-2044(a5)
    135c:	80c7a703          	lw	a4,-2036(a5)
    1360:	76f9                	lui	a3,0xffffe
    1362:	7ff68693          	addi	a3,a3,2047 # ffffe7ff <_eusrstack+0xdfff97ff>
    1366:	8f75                	and	a4,a4,a3
    1368:	80e7a623          	sw	a4,-2036(a5)
    136c:	8047a703          	lw	a4,-2044(a5)
    1370:	000446b7          	lui	a3,0x44
    1374:	8f55                	or	a4,a4,a3
    1376:	80e7a223          	sw	a4,-2044(a5)
    137a:	40024737          	lui	a4,0x40024
    137e:	80072783          	lw	a5,-2048(a4) # 40023800 <_eusrstack+0x2001e800>
    1382:	c821                	beqz	s0,13d2 <USB_Port_Set+0xae>
    1384:	0027e793          	ori	a5,a5,2
    1388:	80f72023          	sw	a5,-2048(a4)
    138c:	dc9fe06f          	j	154 <__riscv_restore_0>
    1390:	40006737          	lui	a4,0x40006
    1394:	c4072783          	lw	a5,-960(a4) # 40005c40 <_eusrstack+0x20000c40>
    1398:	fff016b7          	lui	a3,0xfff01
    139c:	16fd                	addi	a3,a3,-1
    139e:	0027e793          	ori	a5,a5,2
    13a2:	07c2                	slli	a5,a5,0x10
    13a4:	83c1                	srli	a5,a5,0x10
    13a6:	c4f72023          	sw	a5,-960(a4)
    13aa:	400117b7          	lui	a5,0x40011
    13ae:	8047a703          	lw	a4,-2044(a5) # 40010804 <_eusrstack+0x2000b804>
    13b2:	8f75                	and	a4,a4,a3
    13b4:	80e7a223          	sw	a4,-2044(a5)
    13b8:	80c7a703          	lw	a4,-2036(a5)
    13bc:	76f9                	lui	a3,0xffffe
    13be:	7ff68693          	addi	a3,a3,2047 # ffffe7ff <_eusrstack+0xdfff97ff>
    13c2:	8f75                	and	a4,a4,a3
    13c4:	80e7a623          	sw	a4,-2036(a5)
    13c8:	8047a703          	lw	a4,-2044(a5)
    13cc:	000336b7          	lui	a3,0x33
    13d0:	b755                	j	1374 <USB_Port_Set+0x50>
    13d2:	9bf5                	andi	a5,a5,-3
    13d4:	bf55                	j	1388 <USB_Port_Set+0x64>

000013d6 <EP2_IN_Callback>:
    13d6:	d5bfe2ef          	jal	t0,130 <__riscv_save_0>
    13da:	17e010ef          	jal	ra,2558 <UDISK_In_EP_Deal>
    13de:	d77fe06f          	j	154 <__riscv_restore_0>

000013e2 <EP3_OUT_Callback>:
    13e2:	d4ffe2ef          	jal	t0,130 <__riscv_save_0>
    13e6:	8d418593          	addi	a1,gp,-1836 # 20000224 <UDisk_EP3_Pack_Buffer>
    13ea:	450d                	li	a0,3
    13ec:	3525                	jal	1214 <USB_SIL_Read>
    13ee:	01051593          	slli	a1,a0,0x10
    13f2:	81c1                	srli	a1,a1,0x10
    13f4:	8d418513          	addi	a0,gp,-1836 # 20000224 <UDisk_EP3_Pack_Buffer>
    13f8:	84b19d23          	sh	a1,-1958(gp) # 200001aa <USB_Rx_Cnt>
    13fc:	23c010ef          	jal	ra,2638 <UDISK_Out_EP_Deal>
    1400:	450d                	li	a0,3
    1402:	3665                	jal	faa <SetEPRxValid>
    1404:	d51fe06f          	j	154 <__riscv_restore_0>

00001408 <USB_Istr>:
    1408:	d29fe2ef          	jal	t0,130 <__riscv_save_0>
    140c:	40006837          	lui	a6,0x40006
    1410:	c5082703          	lw	a4,-944(a6) # 40005c50 <_eusrstack+0x20000c50>
    1414:	65c1                	lui	a1,0x10
    1416:	fff58513          	addi	a0,a1,-1 # ffff <_data_lma+0xbd73>
    141a:	85c1d683          	lhu	a3,-1956(gp) # 200001ac <Ep0RxBlks>
    141e:	200037b7          	lui	a5,0x20003
    1422:	8f69                	and	a4,a4,a0
    1424:	00678613          	addi	a2,a5,6 # 20003006 <__global_pointer$+0x26b6>
    1428:	9732                	add	a4,a4,a2
    142a:	0706                	slli	a4,a4,0x1
    142c:	4318                	lw	a4,0(a4)
    142e:	c0058593          	addi	a1,a1,-1024
    1432:	1101                	addi	sp,sp,-32
    1434:	8df9                	and	a1,a1,a4
    1436:	00d58c63          	beq	a1,a3,144e <USB_Istr+0x46>
    143a:	c5082783          	lw	a5,-944(a6)
    143e:	c006f693          	andi	a3,a3,-1024
    1442:	8fe9                	and	a5,a5,a0
    1444:	97b2                	add	a5,a5,a2
    1446:	0786                	slli	a5,a5,0x1
    1448:	4398                	lw	a4,0(a5)
    144a:	8ed9                	or	a3,a3,a4
    144c:	c394                	sw	a3,0(a5)
    144e:	400066b7          	lui	a3,0x40006
    1452:	c446a783          	lw	a5,-956(a3) # 40005c44 <_eusrstack+0x20000c44>
    1456:	86818713          	addi	a4,gp,-1944 # 200001b8 <wIstr>
    145a:	07c2                	slli	a5,a5,0x10
    145c:	83c1                	srli	a5,a5,0x10
    145e:	a31e                	sh	a5,0(a4)
    1460:	231a                	lhu	a4,0(a4)
    1462:	8541d783          	lhu	a5,-1964(gp) # 200001a4 <wInterrupt_Mask>
    1466:	86818413          	addi	s0,gp,-1944 # 200001b8 <wIstr>
    146a:	8f7d                	and	a4,a4,a5
    146c:	20077713          	andi	a4,a4,512
    1470:	cf09                	beqz	a4,148a <USB_Istr+0x82>
    1472:	6741                	lui	a4,0x10
    1474:	dff70713          	addi	a4,a4,-513 # fdff <_data_lma+0xbb73>
    1478:	c4e6a223          	sw	a4,-956(a3)
    147c:	85e18693          	addi	a3,gp,-1954 # 200001ae <bIntPackSOF>
    1480:	2298                	lbu	a4,0(a3)
    1482:	0705                	addi	a4,a4,1
    1484:	0ff77713          	andi	a4,a4,255
    1488:	a298                	sb	a4,0(a3)
    148a:	201a                	lhu	a4,0(s0)
    148c:	8ff9                	and	a5,a5,a4
    148e:	07c2                	slli	a5,a5,0x10
    1490:	87c1                	srai	a5,a5,0x10
    1492:	0007d463          	bgez	a5,149a <USB_Istr+0x92>
    1496:	e4cff0ef          	jal	ra,ae2 <CTR_LP>
    149a:	201e                	lhu	a5,0(s0)
    149c:	8541d703          	lhu	a4,-1964(gp) # 200001a4 <wInterrupt_Mask>
    14a0:	8ff9                	and	a5,a5,a4
    14a2:	4007f793          	andi	a5,a5,1024
    14a6:	cf89                	beqz	a5,14c0 <USB_Istr+0xb8>
    14a8:	67c1                	lui	a5,0x10
    14aa:	bff78793          	addi	a5,a5,-1025 # fbff <_data_lma+0xb973>
    14ae:	40006737          	lui	a4,0x40006
    14b2:	c4f72223          	sw	a5,-956(a4) # 40005c44 <_eusrstack+0x20000c44>
    14b6:	200007b7          	lui	a5,0x20000
    14ba:	03c7a783          	lw	a5,60(a5) # 2000003c <Device_Property+0x4>
    14be:	9782                	jalr	a5
    14c0:	201a                	lhu	a4,0(s0)
    14c2:	8541d783          	lhu	a5,-1964(gp) # 200001a4 <wInterrupt_Mask>
    14c6:	8f7d                	and	a4,a4,a5
    14c8:	01271693          	slli	a3,a4,0x12
    14cc:	0006d863          	bgez	a3,14dc <USB_Istr+0xd4>
    14d0:	6739                	lui	a4,0xe
    14d2:	400066b7          	lui	a3,0x40006
    14d6:	177d                	addi	a4,a4,-1
    14d8:	c4e6a223          	sw	a4,-956(a3) # 40005c44 <_eusrstack+0x20000c44>
    14dc:	201a                	lhu	a4,0(s0)
    14de:	8ff9                	and	a5,a5,a4
    14e0:	01379713          	slli	a4,a5,0x13
    14e4:	00075a63          	bgez	a4,14f8 <USB_Istr+0xf0>
    14e8:	67bd                	lui	a5,0xf
    14ea:	40006737          	lui	a4,0x40006
    14ee:	17fd                	addi	a5,a5,-1
    14f0:	c4f72223          	sw	a5,-956(a4) # 40005c44 <_eusrstack+0x20000c44>
    14f4:	4501                	li	a0,0
    14f6:	2b09                	jal	1a08 <Resume>
    14f8:	8541d703          	lhu	a4,-1964(gp) # 200001a4 <wInterrupt_Mask>
    14fc:	201e                	lhu	a5,0(s0)
    14fe:	8ff9                	and	a5,a5,a4
    1500:	01479713          	slli	a4,a5,0x14
    1504:	00075e63          	bgez	a4,1520 <USB_Istr+0x118>
    1508:	8141a783          	lw	a5,-2028(gp) # 20000164 <fSuspendEnabled>
    150c:	0e078f63          	beqz	a5,160a <USB_Istr+0x202>
    1510:	2909                	jal	1922 <Suspend>
    1512:	67bd                	lui	a5,0xf
    1514:	40006737          	lui	a4,0x40006
    1518:	7ff78793          	addi	a5,a5,2047 # f7ff <_data_lma+0xb573>
    151c:	c4f72223          	sw	a5,-956(a4) # 40005c44 <_eusrstack+0x20000c44>
    1520:	201e                	lhu	a5,0(s0)
    1522:	8541d703          	lhu	a4,-1964(gp) # 200001a4 <wInterrupt_Mask>
    1526:	8ff9                	and	a5,a5,a4
    1528:	1007f793          	andi	a5,a5,256
    152c:	cfe1                	beqz	a5,1604 <USB_Istr+0x1fc>
    152e:	67c1                	lui	a5,0x10
    1530:	40006737          	lui	a4,0x40006
    1534:	eff78693          	addi	a3,a5,-257 # feff <_data_lma+0xbc73>
    1538:	c4d72223          	sw	a3,-956(a4) # 40005c44 <_eusrstack+0x20000c44>
    153c:	c4872603          	lw	a2,-952(a4)
    1540:	86018693          	addi	a3,gp,-1952 # 200001b0 <esof_counter>
    1544:	01061593          	slli	a1,a2,0x10
    1548:	0a05da63          	bgez	a1,15fc <USB_Istr+0x1f4>
    154c:	4290                	lw	a2,0(a3)
    154e:	0605                	addi	a2,a2,1
    1550:	c290                	sw	a2,0(a3)
    1552:	428c                	lw	a1,0(a3)
    1554:	460d                	li	a2,3
    1556:	0ab67563          	bgeu	a2,a1,1600 <USB_Istr+0x1f8>
    155a:	c4072603          	lw	a2,-960(a4)
    155e:	17fd                	addi	a5,a5,-1
    1560:	8a21                	andi	a2,a2,8
    1562:	ee59                	bnez	a2,1600 <USB_Istr+0x1f8>
    1564:	c4072603          	lw	a2,-960(a4)
    1568:	86418593          	addi	a1,gp,-1948 # 200001b4 <wCNTR>
    156c:	8e7d                	and	a2,a2,a5
    156e:	40006537          	lui	a0,0x40006
    1572:	c190                	sw	a2,0(a1)
    1574:	86418713          	addi	a4,gp,-1948 # 200001b4 <wCNTR>
    1578:	4601                	li	a2,0
    157a:	c0050313          	addi	t1,a0,-1024 # 40005c00 <_eusrstack+0x20000c00>
    157e:	48a1                	li	a7,8
    1580:	00261593          	slli	a1,a2,0x2
    1584:	00658833          	add	a6,a1,t1
    1588:	00082803          	lw	a6,0(a6)
    158c:	1000                	addi	s0,sp,32
    158e:	95a2                	add	a1,a1,s0
    1590:	00f87833          	and	a6,a6,a5
    1594:	ff05a023          	sw	a6,-32(a1)
    1598:	0605                	addi	a2,a2,1
    159a:	ff1613e3          	bne	a2,a7,1580 <USB_Istr+0x178>
    159e:	4310                	lw	a2,0(a4)
    15a0:	00166613          	ori	a2,a2,1
    15a4:	c310                	sw	a2,0(a4)
    15a6:	4310                	lw	a2,0(a4)
    15a8:	8e7d                	and	a2,a2,a5
    15aa:	c4c52023          	sw	a2,-960(a0)
    15ae:	4310                	lw	a2,0(a4)
    15b0:	9a79                	andi	a2,a2,-2
    15b2:	c310                	sw	a2,0(a4)
    15b4:	4318                	lw	a4,0(a4)
    15b6:	8ff9                	and	a5,a5,a4
    15b8:	c4f52023          	sw	a5,-960(a0)
    15bc:	40006737          	lui	a4,0x40006
    15c0:	c4472783          	lw	a5,-956(a4) # 40005c44 <_eusrstack+0x20000c44>
    15c4:	4007f793          	andi	a5,a5,1024
    15c8:	dfe5                	beqz	a5,15c0 <USB_Istr+0x1b8>
    15ca:	67c1                	lui	a5,0x10
    15cc:	bff78793          	addi	a5,a5,-1025 # fbff <_data_lma+0xb973>
    15d0:	40006537          	lui	a0,0x40006
    15d4:	65c1                	lui	a1,0x10
    15d6:	c4f72223          	sw	a5,-956(a4)
    15da:	c0050513          	addi	a0,a0,-1024 # 40005c00 <_eusrstack+0x20000c00>
    15de:	4781                	li	a5,0
    15e0:	15fd                	addi	a1,a1,-1
    15e2:	4821                	li	a6,8
    15e4:	00279713          	slli	a4,a5,0x2
    15e8:	1010                	addi	a2,sp,32
    15ea:	963a                	add	a2,a2,a4
    15ec:	fe062603          	lw	a2,-32(a2) # 2fe0 <__swbuf_r+0x4>
    15f0:	972a                	add	a4,a4,a0
    15f2:	0785                	addi	a5,a5,1
    15f4:	8e6d                	and	a2,a2,a1
    15f6:	c310                	sw	a2,0(a4)
    15f8:	ff0796e3          	bne	a5,a6,15e4 <USB_Istr+0x1dc>
    15fc:	0006a023          	sw	zero,0(a3)
    1600:	451d                	li	a0,7
    1602:	2119                	jal	1a08 <Resume>
    1604:	6105                	addi	sp,sp,32
    1606:	b4ffe06f          	j	154 <__riscv_restore_0>
    160a:	4509                	li	a0,2
    160c:	2ef5                	jal	1a08 <Resume>
    160e:	b711                	j	1512 <USB_Istr+0x10a>

00001610 <USBD_SetConfiguration>:
    1610:	8c21c783          	lbu	a5,-1854(gp) # 20000212 <Device_Info+0xa>
    1614:	c781                	beqz	a5,161c <USBD_SetConfiguration+0xc>
    1616:	4715                	li	a4,5
    1618:	86e1aa23          	sw	a4,-1932(gp) # 200001c4 <bDeviceState>
    161c:	8082                	ret

0000161e <USBD_SetDeviceAddress>:
    161e:	4711                	li	a4,4
    1620:	86e1aa23          	sw	a4,-1932(gp) # 200001c4 <bDeviceState>
    1624:	8082                	ret

00001626 <USBD_SetDeviceFeature>:
    1626:	8082                	ret

00001628 <USBD_Get_Interface_Setting>:
    1628:	e591                	bnez	a1,1634 <USBD_Get_Interface_Setting+0xc>
    162a:	4785                	li	a5,1
    162c:	00a7b533          	sltu	a0,a5,a0
    1630:	0506                	slli	a0,a0,0x1
    1632:	8082                	ret
    1634:	4509                	li	a0,2
    1636:	8082                	ret

00001638 <USBD_Data_Setup>:
    1638:	8481a783          	lw	a5,-1976(gp) # 20000198 <pInformation>
    163c:	02100693          	li	a3,33
    1640:	4509                	li	a0,2
    1642:	2398                	lbu	a4,0(a5)
    1644:	07f77713          	andi	a4,a4,127
    1648:	00d71f63          	bne	a4,a3,1666 <USBD_Data_Setup+0x2e>
    164c:	3394                	lbu	a3,1(a5)
    164e:	0fe00713          	li	a4,254
    1652:	00e69a63          	bne	a3,a4,1666 <USBD_Data_Setup+0x2e>
    1656:	4705                	li	a4,1
    1658:	ab9a                	sh	a4,16(a5)
    165a:	00001737          	lui	a4,0x1
    165e:	66c70713          	addi	a4,a4,1644 # 166c <USBD_UDisk_Get_Max_Lun>
    1662:	cf98                	sw	a4,24(a5)
    1664:	4501                	li	a0,0
    1666:	8082                	ret

00001668 <USBD_NoData_Setup>:
    1668:	4509                	li	a0,2
    166a:	8082                	ret

0000166c <USBD_UDisk_Get_Max_Lun>:
    166c:	8481a783          	lw	a5,-1976(gp) # 20000198 <pInformation>
    1670:	4501                	li	a0,0
    1672:	33d8                	lbu	a4,5(a5)
    1674:	4785                	li	a5,1
    1676:	00e7e463          	bltu	a5,a4,167e <USBD_UDisk_Get_Max_Lun+0x12>
    167a:	86a18513          	addi	a0,gp,-1942 # 200001ba <UDisk_Max_Lun>
    167e:	8082                	ret

00001680 <USBD_init>:
    1680:	ab1fe2ef          	jal	t0,130 <__riscv_save_0>
    1684:	8481a783          	lw	a5,-1976(gp) # 20000198 <pInformation>
    1688:	00078523          	sb	zero,10(a5)
    168c:	24b5                	jal	18f8 <PowerOn>
    168e:	400067b7          	lui	a5,0x40006
    1692:	6685                	lui	a3,0x1
    1694:	40006637          	lui	a2,0x40006
    1698:	c0078793          	addi	a5,a5,-1024 # 40005c00 <_eusrstack+0x20000c00>
    169c:	f0f68693          	addi	a3,a3,-241 # f0f <SetEPTxStatus+0x3>
    16a0:	c2060593          	addi	a1,a2,-992 # 40005c20 <_eusrstack+0x20000c20>
    16a4:	4398                	lw	a4,0(a5)
    16a6:	0791                	addi	a5,a5,4
    16a8:	8f75                	and	a4,a4,a3
    16aa:	fee7ae23          	sw	a4,-4(a5)
    16ae:	feb79be3          	bne	a5,a1,16a4 <USBD_init+0x24>
    16b2:	0ff00793          	li	a5,255
    16b6:	c4f62223          	sw	a5,-956(a2)
    16ba:	b13ff0ef          	jal	ra,11cc <USB_SIL_Init>
    16be:	4581                	li	a1,0
    16c0:	4501                	li	a0,0
    16c2:	8601aa23          	sw	zero,-1932(gp) # 200001c4 <bDeviceState>
    16c6:	39b9                	jal	1324 <USB_Port_Set>
    16c8:	4551                	li	a0,20
    16ca:	64c010ef          	jal	ra,2d16 <Delay_Ms>
    16ce:	4585                	li	a1,1
    16d0:	4505                	li	a0,1
    16d2:	3989                	jal	1324 <USB_Port_Set>
    16d4:	a81fe06f          	j	154 <__riscv_restore_0>

000016d8 <USBD_Reset>:
    16d8:	a59fe2ef          	jal	t0,130 <__riscv_save_0>
    16dc:	6711                	lui	a4,0x4
    16de:	0c774703          	lbu	a4,199(a4) # 40c7 <USBD_ConfigDescriptor+0x7>
    16e2:	8481a783          	lw	a5,-1976(gp) # 20000198 <pInformation>
    16e6:	4501                	li	a0,0
    16e8:	b798                	sb	a4,9(a5)
    16ea:	00079523          	sh	zero,10(a5)
    16ee:	feeff0ef          	jal	ra,edc <SetBTABLE>
    16f2:	20000593          	li	a1,512
    16f6:	4501                	li	a0,0
    16f8:	ff4ff0ef          	jal	ra,eec <SetEPType>
    16fc:	45c1                	li	a1,16
    16fe:	4501                	li	a0,0
    1700:	80dff0ef          	jal	ra,f0c <SetEPTxStatus>
    1704:	04000593          	li	a1,64
    1708:	4501                	li	a0,0
    170a:	997ff0ef          	jal	ra,10a0 <SetEPRxAddr>
    170e:	08000593          	li	a1,128
    1712:	4501                	li	a0,0
    1714:	96dff0ef          	jal	ra,1080 <SetEPTxAddr>
    1718:	4501                	li	a0,0
    171a:	8f9ff0ef          	jal	ra,1012 <Clear_Status_Out>
    171e:	200007b7          	lui	a5,0x20000
    1722:	0647c583          	lbu	a1,100(a5) # 20000064 <Device_Property+0x2c>
    1726:	4501                	li	a0,0
    1728:	9f3ff0ef          	jal	ra,111a <SetEPRxCount>
    172c:	4501                	li	a0,0
    172e:	87dff0ef          	jal	ra,faa <SetEPRxValid>
    1732:	40006737          	lui	a4,0x40006
    1736:	c0072603          	lw	a2,-1024(a4) # 40005c00 <_eusrstack+0x20000c00>
    173a:	67c1                	lui	a5,0x10
    173c:	fff78693          	addi	a3,a5,-1 # ffff <_data_lma+0xbd73>
    1740:	01161793          	slli	a5,a2,0x11
    1744:	0007df63          	bgez	a5,1762 <USBD_Reset+0x8a>
    1748:	c0072783          	lw	a5,-1024(a4)
    174c:	8ff5                	and	a5,a5,a3
    174e:	6685                	lui	a3,0x1
    1750:	f0f68693          	addi	a3,a3,-241 # f0f <SetEPTxStatus+0x3>
    1754:	8ff5                	and	a5,a5,a3
    1756:	66b1                	lui	a3,0xc
    1758:	08068693          	addi	a3,a3,128 # c080 <_data_lma+0x7df4>
    175c:	8fd5                	or	a5,a5,a3
    175e:	c0f72023          	sw	a5,-1024(a4)
    1762:	40006737          	lui	a4,0x40006
    1766:	c0072783          	lw	a5,-1024(a4) # 40005c00 <_eusrstack+0x20000c00>
    176a:	0407f793          	andi	a5,a5,64
    176e:	c385                	beqz	a5,178e <USBD_Reset+0xb6>
    1770:	c0072783          	lw	a5,-1024(a4)
    1774:	66c1                	lui	a3,0x10
    1776:	16fd                	addi	a3,a3,-1
    1778:	8ff5                	and	a5,a5,a3
    177a:	6685                	lui	a3,0x1
    177c:	f0f68693          	addi	a3,a3,-241 # f0f <SetEPTxStatus+0x3>
    1780:	8ff5                	and	a5,a5,a3
    1782:	66a1                	lui	a3,0x8
    1784:	0c068693          	addi	a3,a3,192 # 80c0 <_data_lma+0x3e34>
    1788:	8fd5                	or	a5,a5,a3
    178a:	c0f72023          	sw	a5,-1024(a4)
    178e:	4581                	li	a1,0
    1790:	4509                	li	a0,2
    1792:	f5aff0ef          	jal	ra,eec <SetEPType>
    1796:	0c000593          	li	a1,192
    179a:	4509                	li	a0,2
    179c:	8e5ff0ef          	jal	ra,1080 <SetEPTxAddr>
    17a0:	02000593          	li	a1,32
    17a4:	4509                	li	a0,2
    17a6:	f66ff0ef          	jal	ra,f0c <SetEPTxStatus>
    17aa:	4581                	li	a1,0
    17ac:	4509                	li	a0,2
    17ae:	fa6ff0ef          	jal	ra,f54 <SetEPRxStatus>
    17b2:	40006737          	lui	a4,0x40006
    17b6:	c0872783          	lw	a5,-1016(a4) # 40005c08 <_eusrstack+0x20000c08>
    17ba:	0407f793          	andi	a5,a5,64
    17be:	c385                	beqz	a5,17de <USBD_Reset+0x106>
    17c0:	c0872783          	lw	a5,-1016(a4)
    17c4:	66c1                	lui	a3,0x10
    17c6:	16fd                	addi	a3,a3,-1
    17c8:	8ff5                	and	a5,a5,a3
    17ca:	6685                	lui	a3,0x1
    17cc:	f0f68693          	addi	a3,a3,-241 # f0f <SetEPTxStatus+0x3>
    17d0:	8ff5                	and	a5,a5,a3
    17d2:	66a1                	lui	a3,0x8
    17d4:	0c068693          	addi	a3,a3,192 # 80c0 <_data_lma+0x3e34>
    17d8:	8fd5                	or	a5,a5,a3
    17da:	c0f72423          	sw	a5,-1016(a4)
    17de:	40006737          	lui	a4,0x40006
    17e2:	c0872603          	lw	a2,-1016(a4) # 40005c08 <_eusrstack+0x20000c08>
    17e6:	67c1                	lui	a5,0x10
    17e8:	fff78693          	addi	a3,a5,-1 # ffff <_data_lma+0xbd73>
    17ec:	01161793          	slli	a5,a2,0x11
    17f0:	0007df63          	bgez	a5,180e <USBD_Reset+0x136>
    17f4:	c0872783          	lw	a5,-1016(a4)
    17f8:	8ff5                	and	a5,a5,a3
    17fa:	6685                	lui	a3,0x1
    17fc:	f0f68693          	addi	a3,a3,-241 # f0f <SetEPTxStatus+0x3>
    1800:	8ff5                	and	a5,a5,a3
    1802:	66b1                	lui	a3,0xc
    1804:	08068693          	addi	a3,a3,128 # c080 <_data_lma+0x7df4>
    1808:	8fd5                	or	a5,a5,a3
    180a:	c0f72423          	sw	a5,-1016(a4)
    180e:	4581                	li	a1,0
    1810:	450d                	li	a0,3
    1812:	edaff0ef          	jal	ra,eec <SetEPType>
    1816:	4581                	li	a1,0
    1818:	450d                	li	a0,3
    181a:	ef2ff0ef          	jal	ra,f0c <SetEPTxStatus>
    181e:	10000593          	li	a1,256
    1822:	450d                	li	a0,3
    1824:	87dff0ef          	jal	ra,10a0 <SetEPRxAddr>
    1828:	04000593          	li	a1,64
    182c:	450d                	li	a0,3
    182e:	8edff0ef          	jal	ra,111a <SetEPRxCount>
    1832:	658d                	lui	a1,0x3
    1834:	450d                	li	a0,3
    1836:	f1eff0ef          	jal	ra,f54 <SetEPRxStatus>
    183a:	40006737          	lui	a4,0x40006
    183e:	c0c72783          	lw	a5,-1012(a4) # 40005c0c <_eusrstack+0x20000c0c>
    1842:	0407f793          	andi	a5,a5,64
    1846:	c385                	beqz	a5,1866 <USBD_Reset+0x18e>
    1848:	c0c72783          	lw	a5,-1012(a4)
    184c:	66c1                	lui	a3,0x10
    184e:	16fd                	addi	a3,a3,-1
    1850:	8ff5                	and	a5,a5,a3
    1852:	6685                	lui	a3,0x1
    1854:	f0f68693          	addi	a3,a3,-241 # f0f <SetEPTxStatus+0x3>
    1858:	8ff5                	and	a5,a5,a3
    185a:	66a1                	lui	a3,0x8
    185c:	0c068693          	addi	a3,a3,192 # 80c0 <_data_lma+0x3e34>
    1860:	8fd5                	or	a5,a5,a3
    1862:	c0f72623          	sw	a5,-1012(a4)
    1866:	40006737          	lui	a4,0x40006
    186a:	c0c72603          	lw	a2,-1012(a4) # 40005c0c <_eusrstack+0x20000c0c>
    186e:	67c1                	lui	a5,0x10
    1870:	fff78693          	addi	a3,a5,-1 # ffff <_data_lma+0xbd73>
    1874:	01161793          	slli	a5,a2,0x11
    1878:	0007df63          	bgez	a5,1896 <USBD_Reset+0x1be>
    187c:	c0c72783          	lw	a5,-1012(a4)
    1880:	8ff5                	and	a5,a5,a3
    1882:	6685                	lui	a3,0x1
    1884:	f0f68693          	addi	a3,a3,-241 # f0f <SetEPTxStatus+0x3>
    1888:	8ff5                	and	a5,a5,a3
    188a:	66b1                	lui	a3,0xc
    188c:	08068693          	addi	a3,a3,128 # c080 <_data_lma+0x7df4>
    1890:	8fd5                	or	a5,a5,a3
    1892:	c0f72623          	sw	a5,-1012(a4)
    1896:	4501                	li	a0,0
    1898:	972ff0ef          	jal	ra,a0a <SetDeviceAddress>
    189c:	4705                	li	a4,1
    189e:	86e1aa23          	sw	a4,-1932(gp) # 200001c4 <bDeviceState>
    18a2:	8b3fe06f          	j	154 <__riscv_restore_0>

000018a6 <USBD_GetDeviceDescriptor>:
    18a6:	88bfe2ef          	jal	t0,130 <__riscv_save_0>
    18aa:	80818593          	addi	a1,gp,-2040 # 20000158 <Device_Descriptor>
    18ae:	d59fe0ef          	jal	ra,606 <Standard_GetDescriptorData>
    18b2:	8a3fe06f          	j	154 <__riscv_restore_0>

000018b6 <USBD_GetConfigDescriptor>:
    18b6:	87bfe2ef          	jal	t0,130 <__riscv_save_0>
    18ba:	200005b7          	lui	a1,0x20000
    18be:	15058593          	addi	a1,a1,336 # 20000150 <Config_Descriptor>
    18c2:	d45fe0ef          	jal	ra,606 <Standard_GetDescriptorData>
    18c6:	88ffe06f          	j	154 <__riscv_restore_0>

000018ca <USBD_GetStringDescriptor>:
    18ca:	8481a783          	lw	a5,-1976(gp) # 20000198 <pInformation>
    18ce:	33ac                	lbu	a1,3(a5)
    18d0:	4791                	li	a5,4
    18d2:	00b7ee63          	bltu	a5,a1,18ee <USBD_GetStringDescriptor+0x24>
    18d6:	85bfe2ef          	jal	t0,130 <__riscv_save_0>
    18da:	200007b7          	lui	a5,0x20000
    18de:	06878793          	addi	a5,a5,104 # 20000068 <String_Descriptor>
    18e2:	058e                	slli	a1,a1,0x3
    18e4:	95be                	add	a1,a1,a5
    18e6:	d21fe0ef          	jal	ra,606 <Standard_GetDescriptorData>
    18ea:	86bfe06f          	j	154 <__riscv_restore_0>
    18ee:	4501                	li	a0,0
    18f0:	8082                	ret

000018f2 <USBD_Status_Out>:
    18f2:	8082                	ret

000018f4 <USBD_ClearFeature>:
    18f4:	8082                	ret

000018f6 <USBD_Status_In>:
    18f6:	8082                	ret

000018f8 <PowerOn>:
    18f8:	400067b7          	lui	a5,0x40006
    18fc:	4705                	li	a4,1
    18fe:	c4e7a023          	sw	a4,-960(a5) # 40005c40 <_eusrstack+0x20000c40>
    1902:	c407a023          	sw	zero,-960(a5)
    1906:	6709                	lui	a4,0x2
    1908:	c407a223          	sw	zero,-956(a5)
    190c:	c0070713          	addi	a4,a4,-1024 # 1c00 <SD_ReadDataBlock+0x5a>
    1910:	84e19a23          	sh	a4,-1964(gp) # 200001a4 <wInterrupt_Mask>
    1914:	6709                	lui	a4,0x2
    1916:	c0070713          	addi	a4,a4,-1024 # 1c00 <SD_ReadDataBlock+0x5a>
    191a:	c4e7a023          	sw	a4,-960(a5)
    191e:	4501                	li	a0,0
    1920:	8082                	ret

00001922 <Suspend>:
    1922:	80ffe2ef          	jal	t0,130 <__riscv_save_0>
    1926:	400067b7          	lui	a5,0x40006
    192a:	c407a783          	lw	a5,-960(a5) # 40005c40 <_eusrstack+0x20000c40>
    192e:	40006737          	lui	a4,0x40006
    1932:	6841                	lui	a6,0x10
    1934:	07c2                	slli	a5,a5,0x10
    1936:	83c1                	srli	a5,a5,0x10
    1938:	4681                	li	a3,0
    193a:	c0070313          	addi	t1,a4,-1024 # 40005c00 <_eusrstack+0x20000c00>
    193e:	187d                	addi	a6,a6,-1
    1940:	91418593          	addi	a1,gp,-1772 # 20000264 <EP>
    1944:	48a1                	li	a7,8
    1946:	00269613          	slli	a2,a3,0x2
    194a:	00660533          	add	a0,a2,t1
    194e:	4108                	lw	a0,0(a0)
    1950:	962e                	add	a2,a2,a1
    1952:	0685                	addi	a3,a3,1
    1954:	01057533          	and	a0,a0,a6
    1958:	c208                	sw	a0,0(a2)
    195a:	ff1696e3          	bne	a3,a7,1946 <Suspend+0x24>
    195e:	4007e693          	ori	a3,a5,1024
    1962:	c4d72023          	sw	a3,-960(a4)
    1966:	4017e693          	ori	a3,a5,1025
    196a:	9bf9                	andi	a5,a5,-2
    196c:	07c2                	slli	a5,a5,0x10
    196e:	83c1                	srli	a5,a5,0x10
    1970:	c4d72023          	sw	a3,-960(a4)
    1974:	4007e693          	ori	a3,a5,1024
    1978:	c4d72023          	sw	a3,-960(a4)
    197c:	400066b7          	lui	a3,0x40006
    1980:	c446a703          	lw	a4,-956(a3) # 40005c44 <_eusrstack+0x20000c44>
    1984:	40077713          	andi	a4,a4,1024
    1988:	df65                	beqz	a4,1980 <Suspend+0x5e>
    198a:	6741                	lui	a4,0x10
    198c:	bff70713          	addi	a4,a4,-1025 # fbff <_data_lma+0xb973>
    1990:	c4e6a223          	sw	a4,-956(a3)
    1994:	6841                	lui	a6,0x10
    1996:	40006737          	lui	a4,0x40006
    199a:	4681                	li	a3,0
    199c:	c0070313          	addi	t1,a4,-1024 # 40005c00 <_eusrstack+0x20000c00>
    19a0:	187d                	addi	a6,a6,-1
    19a2:	48a1                	li	a7,8
    19a4:	00269613          	slli	a2,a3,0x2
    19a8:	00c58533          	add	a0,a1,a2
    19ac:	4108                	lw	a0,0(a0)
    19ae:	961a                	add	a2,a2,t1
    19b0:	0685                	addi	a3,a3,1
    19b2:	01057533          	and	a0,a0,a6
    19b6:	c208                	sw	a0,0(a2)
    19b8:	ff1696e3          	bne	a3,a7,19a4 <Suspend+0x82>
    19bc:	4087e793          	ori	a5,a5,1032
    19c0:	c4f72023          	sw	a5,-960(a4)
    19c4:	c4072783          	lw	a5,-960(a4)
    19c8:	07c2                	slli	a5,a5,0x10
    19ca:	83c1                	srli	a5,a5,0x10
    19cc:	0047e793          	ori	a5,a5,4
    19d0:	c4f72023          	sw	a5,-960(a4)
    19d4:	8cbff0ef          	jal	ra,129e <Enter_LowPowerMode>
    19d8:	f7cfe06f          	j	154 <__riscv_restore_0>

000019dc <Resume_Init>:
    19dc:	f54fe2ef          	jal	t0,130 <__riscv_save_0>
    19e0:	40006437          	lui	s0,0x40006
    19e4:	c4042783          	lw	a5,-960(s0) # 40005c40 <_eusrstack+0x20000c40>
    19e8:	07c2                	slli	a5,a5,0x10
    19ea:	83c1                	srli	a5,a5,0x10
    19ec:	9bed                	andi	a5,a5,-5
    19ee:	07c2                	slli	a5,a5,0x10
    19f0:	83c1                	srli	a5,a5,0x10
    19f2:	c4f42023          	sw	a5,-960(s0)
    19f6:	8c3ff0ef          	jal	ra,12b8 <Leave_LowPowerMode>
    19fa:	67b1                	lui	a5,0xc
    19fc:	f0078793          	addi	a5,a5,-256 # bf00 <_data_lma+0x7c74>
    1a00:	c4f42023          	sw	a5,-960(s0)
    1a04:	f50fe06f          	j	154 <__riscv_restore_0>

00001a08 <Resume>:
    1a08:	f28fe2ef          	jal	t0,130 <__riscv_save_0>
    1a0c:	479d                	li	a5,7
    1a0e:	86c18413          	addi	s0,gp,-1940 # 200001bc <ResumeS>
    1a12:	00f50363          	beq	a0,a5,1a18 <Resume+0x10>
    1a16:	c008                	sw	a0,0(s0)
    1a18:	401c                	lw	a5,0(s0)
    1a1a:	4715                	li	a4,5
    1a1c:	00f76d63          	bltu	a4,a5,1a36 <Resume+0x2e>
    1a20:	6711                	lui	a4,0x4
    1a22:	078a                	slli	a5,a5,0x2
    1a24:	13870713          	addi	a4,a4,312 # 4138 <USBD_StringVendor+0x10>
    1a28:	97ba                	add	a5,a5,a4
    1a2a:	439c                	lw	a5,0(a5)
    1a2c:	8782                	jr	a5
    1a2e:	8781a783          	lw	a5,-1928(gp) # 200001c8 <remotewakeupon>
    1a32:	e781                	bnez	a5,1a3a <Resume+0x32>
    1a34:	3765                	jal	19dc <Resume_Init>
    1a36:	4799                	li	a5,6
    1a38:	a011                	j	1a3c <Resume+0x34>
    1a3a:	4795                	li	a5,5
    1a3c:	c01c                	sw	a5,0(s0)
    1a3e:	a039                	j	1a4c <Resume+0x44>
    1a40:	3f71                	jal	19dc <Resume_Init>
    1a42:	4791                	li	a5,4
    1a44:	c01c                	sw	a5,0(s0)
    1a46:	4705                	li	a4,1
    1a48:	86e1ac23          	sw	a4,-1928(gp) # 200001c8 <remotewakeupon>
    1a4c:	f08fe06f          	j	154 <__riscv_restore_0>
    1a50:	4789                	li	a5,2
    1a52:	a05c                	sb	a5,4(s0)
    1a54:	478d                	li	a5,3
    1a56:	b7dd                	j	1a3c <Resume+0x34>
    1a58:	205c                	lbu	a5,4(s0)
    1a5a:	17fd                	addi	a5,a5,-1
    1a5c:	0ff7f793          	andi	a5,a5,255
    1a60:	a05c                	sb	a5,4(s0)
    1a62:	205c                	lbu	a5,4(s0)
    1a64:	0ff7f793          	andi	a5,a5,255
    1a68:	f3f5                	bnez	a5,1a4c <Resume+0x44>
    1a6a:	4791                	li	a5,4
    1a6c:	bfc1                	j	1a3c <Resume+0x34>
    1a6e:	40006737          	lui	a4,0x40006
    1a72:	c4072783          	lw	a5,-960(a4) # 40005c40 <_eusrstack+0x20000c40>
    1a76:	07c2                	slli	a5,a5,0x10
    1a78:	83c1                	srli	a5,a5,0x10
    1a7a:	0107e793          	ori	a5,a5,16
    1a7e:	c4f72023          	sw	a5,-960(a4)
    1a82:	4795                	li	a5,5
    1a84:	c01c                	sw	a5,0(s0)
    1a86:	47a9                	li	a5,10
    1a88:	a05c                	sb	a5,4(s0)
    1a8a:	b7c9                	j	1a4c <Resume+0x44>
    1a8c:	205c                	lbu	a5,4(s0)
    1a8e:	17fd                	addi	a5,a5,-1
    1a90:	0ff7f793          	andi	a5,a5,255
    1a94:	a05c                	sb	a5,4(s0)
    1a96:	205c                	lbu	a5,4(s0)
    1a98:	0ff7f793          	andi	a5,a5,255
    1a9c:	fbc5                	bnez	a5,1a4c <Resume+0x44>
    1a9e:	40006737          	lui	a4,0x40006
    1aa2:	c4072783          	lw	a5,-960(a4) # 40005c40 <_eusrstack+0x20000c40>
    1aa6:	07c2                	slli	a5,a5,0x10
    1aa8:	83c1                	srli	a5,a5,0x10
    1aaa:	9bbd                	andi	a5,a5,-17
    1aac:	07c2                	slli	a5,a5,0x10
    1aae:	83c1                	srli	a5,a5,0x10
    1ab0:	c4f72023          	sw	a5,-960(a4)
    1ab4:	4799                	li	a5,6
    1ab6:	c01c                	sw	a5,0(s0)
    1ab8:	8601ac23          	sw	zero,-1928(gp) # 200001c8 <remotewakeupon>
    1abc:	bf41                	j	1a4c <Resume+0x44>

00001abe <SD_SPI_RW>:
    1abe:	40013737          	lui	a4,0x40013
    1ac2:	271e                	lhu	a5,8(a4)
    1ac4:	8b89                	andi	a5,a5,2
    1ac6:	dff5                	beqz	a5,1ac2 <SD_SPI_RW+0x4>
    1ac8:	0542                	slli	a0,a0,0x10
    1aca:	8141                	srli	a0,a0,0x10
    1acc:	a74a                	sh	a0,12(a4)
    1ace:	40013737          	lui	a4,0x40013
    1ad2:	271e                	lhu	a5,8(a4)
    1ad4:	8b85                	andi	a5,a5,1
    1ad6:	dff5                	beqz	a5,1ad2 <SD_SPI_RW+0x14>
    1ad8:	274a                	lhu	a0,12(a4)
    1ada:	0ff57513          	andi	a0,a0,255
    1ade:	8082                	ret

00001ae0 <SD_SendCmd>:
    1ae0:	e36fe2ef          	jal	t0,116 <__riscv_save_4>
    1ae4:	1141                	addi	sp,sp,-16
    1ae6:	c632                	sw	a2,12(sp)
    1ae8:	400114b7          	lui	s1,0x40011
    1aec:	4941                	li	s2,16
    1aee:	89aa                	mv	s3,a0
    1af0:	8124a823          	sw	s2,-2032(s1) # 40010810 <_eusrstack+0x2000b810>
    1af4:	0ff00513          	li	a0,255
    1af8:	842e                	mv	s0,a1
    1afa:	37d1                	jal	1abe <SD_SPI_RW>
    1afc:	0ff00513          	li	a0,255
    1b00:	8124aa23          	sw	s2,-2028(s1)
    1b04:	3f6d                	jal	1abe <SD_SPI_RW>
    1b06:	854e                	mv	a0,s3
    1b08:	3f5d                	jal	1abe <SD_SPI_RW>
    1b0a:	01845513          	srli	a0,s0,0x18
    1b0e:	3f45                	jal	1abe <SD_SPI_RW>
    1b10:	01045513          	srli	a0,s0,0x10
    1b14:	0ff57513          	andi	a0,a0,255
    1b18:	375d                	jal	1abe <SD_SPI_RW>
    1b1a:	00845513          	srli	a0,s0,0x8
    1b1e:	0ff57513          	andi	a0,a0,255
    1b22:	3f71                	jal	1abe <SD_SPI_RW>
    1b24:	0ff47513          	andi	a0,s0,255
    1b28:	3f59                	jal	1abe <SD_SPI_RW>
    1b2a:	4632                	lw	a2,12(sp)
    1b2c:	6441                	lui	s0,0x10
    1b2e:	80048493          	addi	s1,s1,-2048
    1b32:	8532                	mv	a0,a2
    1b34:	3769                	jal	1abe <SD_SPI_RW>
    1b36:	147d                	addi	s0,s0,-1
    1b38:	0ff00513          	li	a0,255
    1b3c:	3749                	jal	1abe <SD_SPI_RW>
    1b3e:	01851793          	slli	a5,a0,0x18
    1b42:	87e1                	srai	a5,a5,0x18
    1b44:	0007d663          	bgez	a5,1b50 <SD_SendCmd+0x70>
    1b48:	147d                	addi	s0,s0,-1
    1b4a:	0442                	slli	s0,s0,0x10
    1b4c:	8041                	srli	s0,s0,0x10
    1b4e:	f46d                	bnez	s0,1b38 <SD_SendCmd+0x58>
    1b50:	0141                	addi	sp,sp,16
    1b52:	df8fe06f          	j	14a <__riscv_restore_4>

00001b56 <SD_SPI_ReInit>:
    1b56:	ddafe2ef          	jal	t0,130 <__riscv_save_0>
    1b5a:	1101                	addi	sp,sp,-32
    1b5c:	842a                	mv	s0,a0
    1b5e:	4581                	li	a1,0
    1b60:	40013537          	lui	a0,0x40013
    1b64:	c602                	sw	zero,12(sp)
    1b66:	c802                	sw	zero,16(sp)
    1b68:	ca02                	sw	zero,20(sp)
    1b6a:	cc02                	sw	zero,24(sp)
    1b6c:	00011e23          	sh	zero,28(sp)
    1b70:	0ae010ef          	jal	ra,2c1e <SPI_Cmd>
    1b74:	010407b7          	lui	a5,0x1040
    1b78:	c63e                	sw	a5,12(sp)
    1b7a:	020007b7          	lui	a5,0x2000
    1b7e:	ca3e                	sw	a5,20(sp)
    1b80:	006c                	addi	a1,sp,12
    1b82:	479d                	li	a5,7
    1b84:	40013537          	lui	a0,0x40013
    1b88:	86fc                	sh	a5,28(sp)
    1b8a:	84e0                	sh	s0,24(sp)
    1b8c:	c802                	sw	zero,16(sp)
    1b8e:	00011d23          	sh	zero,26(sp)
    1b92:	04e010ef          	jal	ra,2be0 <SPI_Init>
    1b96:	4585                	li	a1,1
    1b98:	40013537          	lui	a0,0x40013
    1b9c:	082010ef          	jal	ra,2c1e <SPI_Cmd>
    1ba0:	6105                	addi	sp,sp,32
    1ba2:	db2fe06f          	j	154 <__riscv_restore_0>

00001ba6 <SD_ReadDataBlock>:
    1ba6:	d8afe2ef          	jal	t0,130 <__riscv_save_0>
    1baa:	6461                	lui	s0,0x18
    1bac:	892a                	mv	s2,a0
    1bae:	84ae                	mv	s1,a1
    1bb0:	6a040413          	addi	s0,s0,1696 # 186a0 <_data_lma+0x14414>
    1bb4:	0ff00513          	li	a0,255
    1bb8:	3719                	jal	1abe <SD_SPI_RW>
    1bba:	0ff00793          	li	a5,255
    1bbe:	00f51863          	bne	a0,a5,1bce <SD_ReadDataBlock+0x28>
    1bc2:	147d                	addi	s0,s0,-1
    1bc4:	f865                	bnez	s0,1bb4 <SD_ReadDataBlock+0xe>
    1bc6:	57fd                	li	a5,-1
    1bc8:	853e                	mv	a0,a5
    1bca:	d8afe06f          	j	154 <__riscv_restore_0>
    1bce:	0fe00713          	li	a4,254
    1bd2:	57fd                	li	a5,-1
    1bd4:	fee51ae3          	bne	a0,a4,1bc8 <SD_ReadDataBlock+0x22>
    1bd8:	4401                	li	s0,0
    1bda:	0ff00513          	li	a0,255
    1bde:	35c5                	jal	1abe <SD_SPI_RW>
    1be0:	008907b3          	add	a5,s2,s0
    1be4:	0405                	addi	s0,s0,1
    1be6:	a388                	sb	a0,0(a5)
    1be8:	01041793          	slli	a5,s0,0x10
    1bec:	83c1                	srli	a5,a5,0x10
    1bee:	fe97e6e3          	bltu	a5,s1,1bda <SD_ReadDataBlock+0x34>
    1bf2:	0ff00513          	li	a0,255
    1bf6:	35e1                	jal	1abe <SD_SPI_RW>
    1bf8:	0ff00513          	li	a0,255
    1bfc:	35c9                	jal	1abe <SD_SPI_RW>
    1bfe:	4781                	li	a5,0
    1c00:	b7e1                	j	1bc8 <SD_ReadDataBlock+0x22>

00001c02 <SD_Port_Init>:
    1c02:	d2efe2ef          	jal	t0,130 <__riscv_save_0>
    1c06:	6505                	lui	a0,0x1
    1c08:	1141                	addi	sp,sp,-16
    1c0a:	4585                	li	a1,1
    1c0c:	0511                	addi	a0,a0,4
    1c0e:	40011437          	lui	s0,0x40011
    1c12:	c202                	sw	zero,4(sp)
    1c14:	c402                	sw	zero,8(sp)
    1c16:	c602                	sw	zero,12(sp)
    1c18:	78d000ef          	jal	ra,2ba4 <RCC_APB2PeriphClockCmd>
    1c1c:	47c1                	li	a5,16
    1c1e:	4941                	li	s2,16
    1c20:	448d                	li	s1,3
    1c22:	004c                	addi	a1,sp,4
    1c24:	80040513          	addi	a0,s0,-2048 # 40010800 <_eusrstack+0x2000b800>
    1c28:	827c                	sh	a5,4(sp)
    1c2a:	c64a                	sw	s2,12(sp)
    1c2c:	c426                	sw	s1,8(sp)
    1c2e:	553000ef          	jal	ra,2980 <GPIO_Init>
    1c32:	80040413          	addi	s0,s0,-2048
    1c36:	01242823          	sw	s2,16(s0)
    1c3a:	0a000793          	li	a5,160
    1c3e:	827c                	sh	a5,4(sp)
    1c40:	004c                	addi	a1,sp,4
    1c42:	47e1                	li	a5,24
    1c44:	8522                	mv	a0,s0
    1c46:	c63e                	sw	a5,12(sp)
    1c48:	c426                	sw	s1,8(sp)
    1c4a:	537000ef          	jal	ra,2980 <GPIO_Init>
    1c4e:	04000793          	li	a5,64
    1c52:	004c                	addi	a1,sp,4
    1c54:	827c                	sh	a5,4(sp)
    1c56:	8522                	mv	a0,s0
    1c58:	4791                	li	a5,4
    1c5a:	c63e                	sw	a5,12(sp)
    1c5c:	525000ef          	jal	ra,2980 <GPIO_Init>
    1c60:	03800513          	li	a0,56
    1c64:	3dcd                	jal	1b56 <SD_SPI_ReInit>
    1c66:	0141                	addi	sp,sp,16
    1c68:	cecfe06f          	j	154 <__riscv_restore_0>

00001c6c <SD_Init>:
    1c6c:	caafe2ef          	jal	t0,116 <__riscv_save_4>
    1c70:	400117b7          	lui	a5,0x40011
    1c74:	4741                	li	a4,16
    1c76:	1141                	addi	sp,sp,-16
    1c78:	842a                	mv	s0,a0
    1c7a:	84ae                	mv	s1,a1
    1c7c:	80e7a823          	sw	a4,-2032(a5) # 40010810 <_eusrstack+0x2000b810>
    1c80:	4929                	li	s2,10
    1c82:	197d                	addi	s2,s2,-1
    1c84:	0942                	slli	s2,s2,0x10
    1c86:	0ff00513          	li	a0,255
    1c8a:	01095913          	srli	s2,s2,0x10
    1c8e:	3d05                	jal	1abe <SD_SPI_RW>
    1c90:	fe0919e3          	bnez	s2,1c82 <SD_Init+0x16>
    1c94:	09500613          	li	a2,149
    1c98:	4581                	li	a1,0
    1c9a:	04000513          	li	a0,64
    1c9e:	3589                	jal	1ae0 <SD_SendCmd>
    1ca0:	4785                	li	a5,1
    1ca2:	89aa                	mv	s3,a0
    1ca4:	00f50c63          	beq	a0,a5,1cbc <SD_Init+0x50>
    1ca8:	400117b7          	lui	a5,0x40011
    1cac:	4741                	li	a4,16
    1cae:	80e7a823          	sw	a4,-2032(a5) # 40010810 <_eusrstack+0x2000b810>
    1cb2:	597d                	li	s2,-1
    1cb4:	854a                	mv	a0,s2
    1cb6:	0141                	addi	sp,sp,16
    1cb8:	c92fe06f          	j	14a <__riscv_restore_4>
    1cbc:	08700613          	li	a2,135
    1cc0:	1aa00593          	li	a1,426
    1cc4:	04800513          	li	a0,72
    1cc8:	3d21                	jal	1ae0 <SD_SendCmd>
    1cca:	892a                	mv	s2,a0
    1ccc:	07350463          	beq	a0,s3,1d34 <SD_Init+0xc8>
    1cd0:	4981                	li	s3,0
    1cd2:	400117b7          	lui	a5,0x40011
    1cd6:	4741                	li	a4,16
    1cd8:	80e7a823          	sw	a4,-2032(a5) # 40010810 <_eusrstack+0x2000b810>
    1cdc:	0ff00513          	li	a0,255
    1ce0:	6961                	lui	s2,0x18
    1ce2:	3bf1                	jal	1abe <SD_SPI_RW>
    1ce4:	6a090913          	addi	s2,s2,1696 # 186a0 <_data_lma+0x14414>
    1ce8:	06098e63          	beqz	s3,1d64 <SD_Init+0xf8>
    1cec:	40011ab7          	lui	s5,0x40011
    1cf0:	4a41                	li	s4,16
    1cf2:	0ff00613          	li	a2,255
    1cf6:	4581                	li	a1,0
    1cf8:	07700513          	li	a0,119
    1cfc:	33d5                	jal	1ae0 <SD_SendCmd>
    1cfe:	800a8993          	addi	s3,s5,-2048 # 40010800 <_eusrstack+0x2000b800>
    1d02:	0149a823          	sw	s4,16(s3)
    1d06:	0ff00513          	li	a0,255
    1d0a:	3b55                	jal	1abe <SD_SPI_RW>
    1d0c:	0ff00613          	li	a2,255
    1d10:	400005b7          	lui	a1,0x40000
    1d14:	06900513          	li	a0,105
    1d18:	33e1                	jal	1ae0 <SD_SendCmd>
    1d1a:	8b2a                	mv	s6,a0
    1d1c:	0149a823          	sw	s4,16(s3)
    1d20:	0ff00513          	li	a0,255
    1d24:	3b69                	jal	1abe <SD_SPI_RW>
    1d26:	120b0063          	beqz	s6,1e46 <SD_Init+0x1da>
    1d2a:	197d                	addi	s2,s2,-1
    1d2c:	fc0913e3          	bnez	s2,1cf2 <SD_Init+0x86>
    1d30:	5979                	li	s2,-2
    1d32:	b749                	j	1cb4 <SD_Init+0x48>
    1d34:	0ff00513          	li	a0,255
    1d38:	3359                	jal	1abe <SD_SPI_RW>
    1d3a:	0ff00513          	li	a0,255
    1d3e:	3341                	jal	1abe <SD_SPI_RW>
    1d40:	0ff00513          	li	a0,255
    1d44:	3bad                	jal	1abe <SD_SPI_RW>
    1d46:	89aa                	mv	s3,a0
    1d48:	0ff00513          	li	a0,255
    1d4c:	3b8d                	jal	1abe <SD_SPI_RW>
    1d4e:	f92991e3          	bne	s3,s2,1cd0 <SD_Init+0x64>
    1d52:	f5650993          	addi	s3,a0,-170 # f56 <SetEPRxStatus+0x2>
    1d56:	0019b993          	seqz	s3,s3
    1d5a:	bfa5                	j	1cd2 <SD_Init+0x66>
    1d5c:	0149a823          	sw	s4,16(s3)
    1d60:	5975                	li	s2,-3
    1d62:	bf89                	j	1cb4 <SD_Init+0x48>
    1d64:	400119b7          	lui	s3,0x40011
    1d68:	4a41                	li	s4,16
    1d6a:	0ff00613          	li	a2,255
    1d6e:	4581                	li	a1,0
    1d70:	04100513          	li	a0,65
    1d74:	33b5                	jal	1ae0 <SD_SendCmd>
    1d76:	8aaa                	mv	s5,a0
    1d78:	8149a823          	sw	s4,-2032(s3) # 40010810 <_eusrstack+0x2000b810>
    1d7c:	0ff00513          	li	a0,255
    1d80:	3b3d                	jal	1abe <SD_SPI_RW>
    1d82:	120a8863          	beqz	s5,1eb2 <SD_Init+0x246>
    1d86:	197d                	addi	s2,s2,-1
    1d88:	fe0911e3          	bnez	s2,1d6a <SD_Init+0xfe>
    1d8c:	5971                	li	s2,-4
    1d8e:	b71d                	j	1cb4 <SD_Init+0x48>
    1d90:	45c1                	li	a1,16
    1d92:	850a                	mv	a0,sp
    1d94:	3d09                	jal	1ba6 <SD_ReadDataBlock>
    1d96:	400117b7          	lui	a5,0x40011
    1d9a:	4741                	li	a4,16
    1d9c:	892a                	mv	s2,a0
    1d9e:	80e7a823          	sw	a4,-2032(a5) # 40010810 <_eusrstack+0x2000b810>
    1da2:	0ff00513          	li	a0,255
    1da6:	3b21                	jal	1abe <SD_SPI_RW>
    1da8:	10091363          	bnez	s2,1eae <SD_Init+0x242>
    1dac:	8014                	lbu	a3,0(sp)
    1dae:	8299                	srli	a3,a3,0x6
    1db0:	4505                	li	a0,1
    1db2:	839c                	lbu	a5,7(sp)
    1db4:	840c                	lbu	a1,8(sp)
    1db6:	8498                	lbu	a4,9(sp)
    1db8:	87c18613          	addi	a2,gp,-1924 # 200001cc <s_is_sdhc>
    1dbc:	88018a13          	addi	s4,gp,-1920 # 200001d0 <s_sector_count>
    1dc0:	81818993          	addi	s3,gp,-2024 # 20000168 <s_sector_size>
    1dc4:	04a69363          	bne	a3,a0,1e0a <SD_Init+0x19e>
    1dc8:	842c                	lhu	a1,8(sp)
    1dca:	003f0737          	lui	a4,0x3f0
    1dce:	07c2                	slli	a5,a5,0x10
    1dd0:	8ff9                	and	a5,a5,a4
    1dd2:	00859713          	slli	a4,a1,0x8
    1dd6:	81a1                	srli	a1,a1,0x8
    1dd8:	8f4d                	or	a4,a4,a1
    1dda:	0742                	slli	a4,a4,0x10
    1ddc:	8341                	srli	a4,a4,0x10
    1dde:	8fd9                	or	a5,a5,a4
    1de0:	0785                	addi	a5,a5,1
    1de2:	07aa                	slli	a5,a5,0xa
    1de4:	00fa2023          	sw	a5,0(s4) # 20000000 <_data_vma>
    1de8:	a214                	sb	a3,0(a2)
    1dea:	20000793          	li	a5,512
    1dee:	4521                	li	a0,8
    1df0:	00f99023          	sh	a5,0(s3)
    1df4:	338d                	jal	1b56 <SD_SPI_ReInit>
    1df6:	c401                	beqz	s0,1dfe <SD_Init+0x192>
    1df8:	000a2783          	lw	a5,0(s4)
    1dfc:	c01c                	sw	a5,0(s0)
    1dfe:	ea048be3          	beqz	s1,1cb4 <SD_Init+0x48>
    1e02:	0009d783          	lhu	a5,0(s3)
    1e06:	a09e                	sh	a5,0(s1)
    1e08:	b575                	j	1cb4 <SD_Init+0x48>
    1e0a:	0065d693          	srli	a3,a1,0x6
    1e0e:	078a                	slli	a5,a5,0x2
    1e10:	8fd5                	or	a5,a5,a3
    1e12:	8314                	lbu	a3,6(sp)
    1e14:	6585                	lui	a1,0x1
    1e16:	c0058593          	addi	a1,a1,-1024 # c00 <CTR_LP+0x11e>
    1e1a:	06aa                	slli	a3,a3,0xa
    1e1c:	8eed                	and	a3,a3,a1
    1e1e:	8fd5                	or	a5,a5,a3
    1e20:	8514                	lbu	a3,10(sp)
    1e22:	0706                	slli	a4,a4,0x1
    1e24:	8b19                	andi	a4,a4,6
    1e26:	829d                	srli	a3,a3,0x7
    1e28:	8f55                	or	a4,a4,a3
    1e2a:	0709                	addi	a4,a4,2
    1e2c:	0785                	addi	a5,a5,1
    1e2e:	00e797b3          	sll	a5,a5,a4
    1e32:	8298                	lbu	a4,5(sp)
    1e34:	00060023          	sb	zero,0(a2)
    1e38:	8b3d                	andi	a4,a4,15
    1e3a:	00e797b3          	sll	a5,a5,a4
    1e3e:	83a5                	srli	a5,a5,0x9
    1e40:	00fa2023          	sw	a5,0(s4)
    1e44:	b75d                	j	1dea <SD_Init+0x17e>
    1e46:	0ff00613          	li	a2,255
    1e4a:	4581                	li	a1,0
    1e4c:	07a00513          	li	a0,122
    1e50:	c91ff0ef          	jal	ra,1ae0 <SD_SendCmd>
    1e54:	f00514e3          	bnez	a0,1d5c <SD_Init+0xf0>
    1e58:	0ff00513          	li	a0,255
    1e5c:	c63ff0ef          	jal	ra,1abe <SD_SPI_RW>
    1e60:	892a                	mv	s2,a0
    1e62:	0ff00513          	li	a0,255
    1e66:	c59ff0ef          	jal	ra,1abe <SD_SPI_RW>
    1e6a:	0ff00513          	li	a0,255
    1e6e:	c51ff0ef          	jal	ra,1abe <SD_SPI_RW>
    1e72:	0ff00513          	li	a0,255
    1e76:	c49ff0ef          	jal	ra,1abe <SD_SPI_RW>
    1e7a:	0ff00513          	li	a0,255
    1e7e:	0149a823          	sw	s4,16(s3)
    1e82:	c3dff0ef          	jal	ra,1abe <SD_SPI_RW>
    1e86:	40695513          	srai	a0,s2,0x6
    1e8a:	8905                	andi	a0,a0,1
    1e8c:	86a18e23          	sb	a0,-1924(gp) # 200001cc <s_is_sdhc>
    1e90:	c11d                	beqz	a0,1eb6 <SD_Init+0x24a>
    1e92:	0ff00613          	li	a2,255
    1e96:	4581                	li	a1,0
    1e98:	04900513          	li	a0,73
    1e9c:	c45ff0ef          	jal	ra,1ae0 <SD_SendCmd>
    1ea0:	ee0508e3          	beqz	a0,1d90 <SD_Init+0x124>
    1ea4:	400117b7          	lui	a5,0x40011
    1ea8:	4741                	li	a4,16
    1eaa:	80e7a823          	sw	a4,-2032(a5) # 40010810 <_eusrstack+0x2000b810>
    1eae:	5969                	li	s2,-6
    1eb0:	b511                	j	1cb4 <SD_Init+0x48>
    1eb2:	86018e23          	sb	zero,-1924(gp) # 200001cc <s_is_sdhc>
    1eb6:	0ff00613          	li	a2,255
    1eba:	20000593          	li	a1,512
    1ebe:	05000513          	li	a0,80
    1ec2:	c1fff0ef          	jal	ra,1ae0 <SD_SendCmd>
    1ec6:	400117b7          	lui	a5,0x40011
    1eca:	4741                	li	a4,16
    1ecc:	89aa                	mv	s3,a0
    1ece:	80e7a823          	sw	a4,-2032(a5) # 40010810 <_eusrstack+0x2000b810>
    1ed2:	0ff00513          	li	a0,255
    1ed6:	be9ff0ef          	jal	ra,1abe <SD_SPI_RW>
    1eda:	596d                	li	s2,-5
    1edc:	fa098be3          	beqz	s3,1e92 <SD_Init+0x226>
    1ee0:	bbd1                	j	1cb4 <SD_Init+0x48>

00001ee2 <SD_ReadBlocks>:
    1ee2:	a34fe2ef          	jal	t0,116 <__riscv_save_4>
    1ee6:	00a60933          	add	s2,a2,a0
    1eea:	ca01                	beqz	a2,1efa <SD_ReadBlocks+0x18>
    1eec:	842a                	mv	s0,a0
    1eee:	84ae                	mv	s1,a1
    1ef0:	40011a37          	lui	s4,0x40011
    1ef4:	4ac1                	li	s5,16
    1ef6:	01241563          	bne	s0,s2,1f00 <SD_ReadBlocks+0x1e>
    1efa:	4501                	li	a0,0
    1efc:	a4efe06f          	j	14a <__riscv_restore_4>
    1f00:	87c1c783          	lbu	a5,-1924(gp) # 200001cc <s_is_sdhc>
    1f04:	85a2                	mv	a1,s0
    1f06:	e399                	bnez	a5,1f0c <SD_ReadBlocks+0x2a>
    1f08:	00941593          	slli	a1,s0,0x9
    1f0c:	0ff00613          	li	a2,255
    1f10:	05100513          	li	a0,81
    1f14:	bcdff0ef          	jal	ra,1ae0 <SD_SendCmd>
    1f18:	c901                	beqz	a0,1f28 <SD_ReadBlocks+0x46>
    1f1a:	400117b7          	lui	a5,0x40011
    1f1e:	4741                	li	a4,16
    1f20:	80e7a823          	sw	a4,-2032(a5) # 40010810 <_eusrstack+0x2000b810>
    1f24:	557d                	li	a0,-1
    1f26:	bfd9                	j	1efc <SD_ReadBlocks+0x1a>
    1f28:	20000593          	li	a1,512
    1f2c:	8526                	mv	a0,s1
    1f2e:	c79ff0ef          	jal	ra,1ba6 <SD_ReadDataBlock>
    1f32:	800a0793          	addi	a5,s4,-2048 # 40010800 <_eusrstack+0x2000b800>
    1f36:	c509                	beqz	a0,1f40 <SD_ReadBlocks+0x5e>
    1f38:	4741                	li	a4,16
    1f3a:	cb98                	sw	a4,16(a5)
    1f3c:	5579                	li	a0,-2
    1f3e:	bf7d                	j	1efc <SD_ReadBlocks+0x1a>
    1f40:	0157a823          	sw	s5,16(a5)
    1f44:	0ff00513          	li	a0,255
    1f48:	b77ff0ef          	jal	ra,1abe <SD_SPI_RW>
    1f4c:	20048493          	addi	s1,s1,512
    1f50:	0405                	addi	s0,s0,1
    1f52:	b755                	j	1ef6 <SD_ReadBlocks+0x14>

00001f54 <SD_WriteBlocks>:
    1f54:	9b4fe2ef          	jal	t0,108 <__riscv_save_10>
    1f58:	00a60a33          	add	s4,a2,a0
    1f5c:	ca09                	beqz	a2,1f6e <SD_WriteBlocks+0x1a>
    1f5e:	842a                	mv	s0,a0
    1f60:	892e                	mv	s2,a1
    1f62:	69e1                	lui	s3,0x18
    1f64:	20000b13          	li	s6,512
    1f68:	4b95                	li	s7,5
    1f6a:	01441563          	bne	s0,s4,1f74 <SD_WriteBlocks+0x20>
    1f6e:	4501                	li	a0,0
    1f70:	9d0fe06f          	j	140 <__riscv_restore_10>
    1f74:	87c1c783          	lbu	a5,-1924(gp) # 200001cc <s_is_sdhc>
    1f78:	85a2                	mv	a1,s0
    1f7a:	e399                	bnez	a5,1f80 <SD_WriteBlocks+0x2c>
    1f7c:	00941593          	slli	a1,s0,0x9
    1f80:	0ff00613          	li	a2,255
    1f84:	05800513          	li	a0,88
    1f88:	b59ff0ef          	jal	ra,1ae0 <SD_SendCmd>
    1f8c:	c901                	beqz	a0,1f9c <SD_WriteBlocks+0x48>
    1f8e:	400117b7          	lui	a5,0x40011
    1f92:	4741                	li	a4,16
    1f94:	80e7a823          	sw	a4,-2032(a5) # 40010810 <_eusrstack+0x2000b810>
    1f98:	557d                	li	a0,-1
    1f9a:	bfd9                	j	1f70 <SD_WriteBlocks+0x1c>
    1f9c:	6a198493          	addi	s1,s3,1697 # 186a1 <_data_lma+0x14415>
    1fa0:	0ff00513          	li	a0,255
    1fa4:	b1bff0ef          	jal	ra,1abe <SD_SPI_RW>
    1fa8:	0ff00793          	li	a5,255
    1fac:	02f50763          	beq	a0,a5,1fda <SD_WriteBlocks+0x86>
    1fb0:	14fd                	addi	s1,s1,-1
    1fb2:	f4fd                	bnez	s1,1fa0 <SD_WriteBlocks+0x4c>
    1fb4:	54fd                	li	s1,-1
    1fb6:	400117b7          	lui	a5,0x40011
    1fba:	4741                	li	a4,16
    1fbc:	80e7a823          	sw	a4,-2032(a5) # 40010810 <_eusrstack+0x2000b810>
    1fc0:	0ff00513          	li	a0,255
    1fc4:	afbff0ef          	jal	ra,1abe <SD_SPI_RW>
    1fc8:	e499                	bnez	s1,1fd6 <SD_WriteBlocks+0x82>
    1fca:	20090913          	addi	s2,s2,512
    1fce:	0405                	addi	s0,s0,1
    1fd0:	bf69                	j	1f6a <SD_WriteBlocks+0x16>
    1fd2:	4481                	li	s1,0
    1fd4:	b7cd                	j	1fb6 <SD_WriteBlocks+0x62>
    1fd6:	5579                	li	a0,-2
    1fd8:	bf61                	j	1f70 <SD_WriteBlocks+0x1c>
    1fda:	0fe00513          	li	a0,254
    1fde:	ae1ff0ef          	jal	ra,1abe <SD_SPI_RW>
    1fe2:	4481                	li	s1,0
    1fe4:	009907b3          	add	a5,s2,s1
    1fe8:	2388                	lbu	a0,0(a5)
    1fea:	0485                	addi	s1,s1,1
    1fec:	ad3ff0ef          	jal	ra,1abe <SD_SPI_RW>
    1ff0:	ff649ae3          	bne	s1,s6,1fe4 <SD_WriteBlocks+0x90>
    1ff4:	0ff00513          	li	a0,255
    1ff8:	ac7ff0ef          	jal	ra,1abe <SD_SPI_RW>
    1ffc:	0ff00513          	li	a0,255
    2000:	abfff0ef          	jal	ra,1abe <SD_SPI_RW>
    2004:	0ff00513          	li	a0,255
    2008:	ab7ff0ef          	jal	ra,1abe <SD_SPI_RW>
    200c:	897d                	andi	a0,a0,31
    200e:	54f9                	li	s1,-2
    2010:	fb7513e3          	bne	a0,s7,1fb6 <SD_WriteBlocks+0x62>
    2014:	6a198493          	addi	s1,s3,1697
    2018:	0ff00513          	li	a0,255
    201c:	aa3ff0ef          	jal	ra,1abe <SD_SPI_RW>
    2020:	0ff00793          	li	a5,255
    2024:	faf507e3          	beq	a0,a5,1fd2 <SD_WriteBlocks+0x7e>
    2028:	14fd                	addi	s1,s1,-1
    202a:	f4fd                	bnez	s1,2018 <SD_WriteBlocks+0xc4>
    202c:	54f5                	li	s1,-3
    202e:	b761                	j	1fb6 <SD_WriteBlocks+0x62>

00002030 <UDISK_CMD_Deal_Fail>:
    2030:	900fe2ef          	jal	t0,130 <__riscv_save_0>
    2034:	89f18793          	addi	a5,gp,-1889 # 200001ef <Udisk_Transfer_Status>
    2038:	239c                	lbu	a5,0(a5)
    203a:	89f18413          	addi	s0,gp,-1889 # 200001ef <Udisk_Transfer_Status>
    203e:	8b85                	andi	a5,a5,1
    2040:	cb89                	beqz	a5,2052 <UDISK_CMD_Deal_Fail+0x22>
    2042:	45c1                	li	a1,16
    2044:	4509                	li	a0,2
    2046:	ec7fe0ef          	jal	ra,f0c <SetEPTxStatus>
    204a:	201c                	lbu	a5,0(s0)
    204c:	0fe7f793          	andi	a5,a5,254
    2050:	a01c                	sb	a5,0(s0)
    2052:	201c                	lbu	a5,0(s0)
    2054:	8b89                	andi	a5,a5,2
    2056:	cb89                	beqz	a5,2068 <UDISK_CMD_Deal_Fail+0x38>
    2058:	6585                	lui	a1,0x1
    205a:	450d                	li	a0,3
    205c:	ef9fe0ef          	jal	ra,f54 <SetEPRxStatus>
    2060:	201c                	lbu	a5,0(s0)
    2062:	0fd7f793          	andi	a5,a5,253
    2066:	a01c                	sb	a5,0(s0)
    2068:	8ecfe06f          	j	154 <__riscv_restore_0>

0000206c <CMD_RD_WR_Deal_Pre>:
    206c:	d3418713          	addi	a4,gp,-716 # 20000684 <mBOC>
    2070:	3b14                	lbu	a3,17(a4)
    2072:	88418793          	addi	a5,gp,-1916 # 200001d4 <UDISK_Cur_Sec_Lba>
    2076:	06e2                	slli	a3,a3,0x18
    2078:	c394                	sw	a3,0(a5)
    207a:	2b34                	lbu	a3,18(a4)
    207c:	4390                	lw	a2,0(a5)
    207e:	06c2                	slli	a3,a3,0x10
    2080:	96b2                	add	a3,a3,a2
    2082:	c394                	sw	a3,0(a5)
    2084:	3b34                	lbu	a3,19(a4)
    2086:	4390                	lw	a2,0(a5)
    2088:	06a2                	slli	a3,a3,0x8
    208a:	96b2                	add	a3,a3,a2
    208c:	c394                	sw	a3,0(a5)
    208e:	4390                	lw	a2,0(a5)
    2090:	2b54                	lbu	a3,20(a4)
    2092:	96b2                	add	a3,a3,a2
    2094:	c394                	sw	a3,0(a5)
    2096:	2b74                	lbu	a3,22(a4)
    2098:	88c18793          	addi	a5,gp,-1908 # 200001dc <UDISK_Transfer_DataLen>
    209c:	06a2                	slli	a3,a3,0x8
    209e:	c394                	sw	a3,0(a5)
    20a0:	4394                	lw	a3,0(a5)
    20a2:	3b78                	lbu	a4,23(a4)
    20a4:	9736                	add	a4,a4,a3
    20a6:	c398                	sw	a4,0(a5)
    20a8:	4398                	lw	a4,0(a5)
    20aa:	0726                	slli	a4,a4,0x9
    20ac:	c398                	sw	a4,0(a5)
    20ae:	88019423          	sh	zero,-1912(gp) # 200001d8 <UDISK_Sec_Pack_Count>
    20b2:	88018ea3          	sb	zero,-1891(gp) # 200001ed <Udisk_Sense_Key>
    20b6:	88018e23          	sb	zero,-1892(gp) # 200001ec <Udisk_Sense_ASC>
    20ba:	88018a23          	sb	zero,-1900(gp) # 200001e4 <Udisk_CSW_Status>
    20be:	8082                	ret

000020c0 <UDISK_SCSI_CMD_Deal>:
    20c0:	870fe2ef          	jal	t0,130 <__riscv_save_0>
    20c4:	d341c603          	lbu	a2,-716(gp) # 20000684 <mBOC>
    20c8:	05500713          	li	a4,85
    20cc:	89f18693          	addi	a3,gp,-1889 # 200001ef <Udisk_Transfer_Status>
    20d0:	30e61d63          	bne	a2,a4,23ea <UDISK_SCSI_CMD_Deal+0x32a>
    20d4:	d3418793          	addi	a5,gp,-716 # 20000684 <mBOC>
    20d8:	3390                	lbu	a2,1(a5)
    20da:	05300713          	li	a4,83
    20de:	30e61663          	bne	a2,a4,23ea <UDISK_SCSI_CMD_Deal+0x32a>
    20e2:	23b0                	lbu	a2,2(a5)
    20e4:	04200713          	li	a4,66
    20e8:	30e61163          	bne	a2,a4,23ea <UDISK_SCSI_CMD_Deal+0x32a>
    20ec:	33b0                	lbu	a2,3(a5)
    20ee:	04300713          	li	a4,67
    20f2:	2ee61c63          	bne	a2,a4,23ea <UDISK_SCSI_CMD_Deal+0x32a>
    20f6:	23d0                	lbu	a2,4(a5)
    20f8:	89018713          	addi	a4,gp,-1904 # 200001e0 <Udisk_CBW_Tag_Save>
    20fc:	a310                	sb	a2,0(a4)
    20fe:	33d0                	lbu	a2,5(a5)
    2100:	37ac                	lbu	a1,11(a5)
    2102:	b310                	sb	a2,1(a4)
    2104:	23f0                	lbu	a2,6(a5)
    2106:	05e2                	slli	a1,a1,0x18
    2108:	a330                	sb	a2,2(a4)
    210a:	33f0                	lbu	a2,7(a5)
    210c:	b330                	sb	a2,3(a4)
    210e:	88c18613          	addi	a2,gp,-1908 # 200001dc <UDISK_Transfer_DataLen>
    2112:	c20c                	sw	a1,0(a2)
    2114:	27ac                	lbu	a1,10(a5)
    2116:	4208                	lw	a0,0(a2)
    2118:	88c18713          	addi	a4,gp,-1908 # 200001dc <UDISK_Transfer_DataLen>
    211c:	05c2                	slli	a1,a1,0x10
    211e:	95aa                	add	a1,a1,a0
    2120:	c20c                	sw	a1,0(a2)
    2122:	378c                	lbu	a1,9(a5)
    2124:	4208                	lw	a0,0(a2)
    2126:	05a2                	slli	a1,a1,0x8
    2128:	95aa                	add	a1,a1,a0
    212a:	c20c                	sw	a1,0(a2)
    212c:	4208                	lw	a0,0(a2)
    212e:	278c                	lbu	a1,8(a5)
    2130:	95aa                	add	a1,a1,a0
    2132:	c20c                	sw	a1,0(a2)
    2134:	4210                	lw	a2,0(a2)
    2136:	ca09                	beqz	a2,2148 <UDISK_SCSI_CMD_Deal+0x88>
    2138:	00c78603          	lb	a2,12(a5)
    213c:	04065c63          	bgez	a2,2194 <UDISK_SCSI_CMD_Deal+0xd4>
    2140:	2290                	lbu	a2,0(a3)
    2142:	00166613          	ori	a2,a2,1
    2146:	a290                	sb	a2,0(a3)
    2148:	2290                	lbu	a2,0(a3)
    214a:	02300593          	li	a1,35
    214e:	00466613          	ori	a2,a2,4
    2152:	a290                	sb	a2,0(a3)
    2154:	37f0                	lbu	a2,15(a5)
    2156:	10b60363          	beq	a2,a1,225c <UDISK_SCSI_CMD_Deal+0x19c>
    215a:	08c5eb63          	bltu	a1,a2,21f0 <UDISK_SCSI_CMD_Deal+0x130>
    215e:	45c9                	li	a1,18
    2160:	0cb60963          	beq	a2,a1,2232 <UDISK_SCSI_CMD_Deal+0x172>
    2164:	02c5ec63          	bltu	a1,a2,219c <UDISK_SCSI_CMD_Deal+0xdc>
    2168:	89d18513          	addi	a0,gp,-1891 # 200001ed <Udisk_Sense_Key>
    216c:	89c18593          	addi	a1,gp,-1892 # 200001ec <Udisk_Sense_ASC>
    2170:	89418713          	addi	a4,gp,-1900 # 200001e4 <Udisk_CSW_Status>
    2174:	24060663          	beqz	a2,23c0 <UDISK_SCSI_CMD_Deal+0x300>
    2178:	480d                	li	a6,3
    217a:	21060a63          	beq	a2,a6,238e <UDISK_SCSI_CMD_Deal+0x2ce>
    217e:	4715                	li	a4,5
    2180:	88e18ea3          	sb	a4,-1891(gp) # 200001ed <Udisk_Sense_Key>
    2184:	02000713          	li	a4,32
    2188:	88e18e23          	sb	a4,-1892(gp) # 200001ec <Udisk_Sense_ASC>
    218c:	4705                	li	a4,1
    218e:	88e18a23          	sb	a4,-1900(gp) # 200001e4 <Udisk_CSW_Status>
    2192:	a4b9                	j	23e0 <UDISK_SCSI_CMD_Deal+0x320>
    2194:	2290                	lbu	a2,0(a3)
    2196:	00266613          	ori	a2,a2,2
    219a:	b775                	j	2146 <UDISK_SCSI_CMD_Deal+0x86>
    219c:	45ed                	li	a1,27
    219e:	0ab60863          	beq	a2,a1,224e <UDISK_SCSI_CMD_Deal+0x18e>
    21a2:	45f9                	li	a1,30
    21a4:	0ab60563          	beq	a2,a1,224e <UDISK_SCSI_CMD_Deal+0x18e>
    21a8:	45e9                	li	a1,26
    21aa:	fcb61ae3          	bne	a2,a1,217e <UDISK_SCSI_CMD_Deal+0xbe>
    21ae:	89e1c683          	lbu	a3,-1890(gp) # 200001ee <Udisk_Status>
    21b2:	8a85                	andi	a3,a3,1
    21b4:	16068163          	beqz	a3,2316 <UDISK_SCSI_CMD_Deal+0x256>
    21b8:	4310                	lw	a2,0(a4)
    21ba:	46b1                	li	a3,12
    21bc:	00c6f363          	bgeu	a3,a2,21c2 <UDISK_SCSI_CMD_Deal+0x102>
    21c0:	c314                	sw	a3,0(a4)
    21c2:	6611                	lui	a2,0x4
    21c4:	4681                	li	a3,0
    21c6:	16060613          	addi	a2,a2,352 # 4160 <UDISK_Mode_Sense_1A>
    21ca:	430c                	lw	a1,0(a4)
    21cc:	12b6eb63          	bltu	a3,a1,2302 <UDISK_SCSI_CMD_Deal+0x242>
    21d0:	89818713          	addi	a4,gp,-1896 # 200001e8 <Udisk_Capability>
    21d4:	4314                	lw	a3,0(a4)
    21d6:	82e1                	srli	a3,a3,0x18
    21d8:	a3d4                	sb	a3,4(a5)
    21da:	4314                	lw	a3,0(a4)
    21dc:	82c1                	srli	a3,a3,0x10
    21de:	b3d4                	sb	a3,5(a5)
    21e0:	4314                	lw	a3,0(a4)
    21e2:	4318                	lw	a4,0(a4)
    21e4:	82a1                	srli	a3,a3,0x8
    21e6:	a3f4                	sb	a3,6(a5)
    21e8:	b3f8                	sb	a4,7(a5)
    21ea:	8af1a023          	sw	a5,-1888(gp) # 200001f0 <pEndp2_Buf>
    21ee:	a02d                	j	2218 <UDISK_SCSI_CMD_Deal+0x158>
    21f0:	02a00593          	li	a1,42
    21f4:	00b60c63          	beq	a2,a1,220c <UDISK_SCSI_CMD_Deal+0x14c>
    21f8:	02c5e263          	bltu	a1,a2,221c <UDISK_SCSI_CMD_Deal+0x15c>
    21fc:	02500593          	li	a1,37
    2200:	0ab60663          	beq	a2,a1,22ac <UDISK_SCSI_CMD_Deal+0x1ec>
    2204:	02800793          	li	a5,40
    2208:	f6f61be3          	bne	a2,a5,217e <UDISK_SCSI_CMD_Deal+0xbe>
    220c:	89e1c783          	lbu	a5,-1890(gp) # 200001ee <Udisk_Status>
    2210:	8b85                	andi	a5,a5,1
    2212:	10078263          	beqz	a5,2316 <UDISK_SCSI_CMD_Deal+0x256>
    2216:	3d99                	jal	206c <CMD_RD_WR_Deal_Pre>
    2218:	f3dfd06f          	j	154 <__riscv_restore_0>
    221c:	02f00593          	li	a1,47
    2220:	02b60763          	beq	a2,a1,224e <UDISK_SCSI_CMD_Deal+0x18e>
    2224:	05a00593          	li	a1,90
    2228:	10b60463          	beq	a2,a1,2330 <UDISK_SCSI_CMD_Deal+0x270>
    222c:	02e00793          	li	a5,46
    2230:	bfe1                	j	2208 <UDISK_SCSI_CMD_Deal+0x148>
    2232:	4314                	lw	a3,0(a4)
    2234:	02400793          	li	a5,36
    2238:	00d7f363          	bgeu	a5,a3,223e <UDISK_SCSI_CMD_Deal+0x17e>
    223c:	c31c                	sw	a5,0(a4)
    223e:	200007b7          	lui	a5,0x20000
    2242:	0ac78793          	addi	a5,a5,172 # 200000ac <UDISK_Inquity_Tab>
    2246:	00078023          	sb	zero,0(a5)
    224a:	8af1a023          	sw	a5,-1888(gp) # 200001f0 <pEndp2_Buf>
    224e:	88018ea3          	sb	zero,-1891(gp) # 200001ed <Udisk_Sense_Key>
    2252:	88018e23          	sb	zero,-1892(gp) # 200001ec <Udisk_Sense_ASC>
    2256:	88018a23          	sb	zero,-1900(gp) # 200001e4 <Udisk_CSW_Status>
    225a:	bf7d                	j	2218 <UDISK_SCSI_CMD_Deal+0x158>
    225c:	89e1c683          	lbu	a3,-1890(gp) # 200001ee <Udisk_Status>
    2260:	8a85                	andi	a3,a3,1
    2262:	cad5                	beqz	a3,2316 <UDISK_SCSI_CMD_Deal+0x256>
    2264:	4310                	lw	a2,0(a4)
    2266:	46b1                	li	a3,12
    2268:	00c6f363          	bgeu	a3,a2,226e <UDISK_SCSI_CMD_Deal+0x1ae>
    226c:	c314                	sw	a3,0(a4)
    226e:	6611                	lui	a2,0x4
    2270:	4681                	li	a3,0
    2272:	16c60613          	addi	a2,a2,364 # 416c <UDISK_Rd_Format_Capacity>
    2276:	430c                	lw	a1,0(a4)
    2278:	02b6e063          	bltu	a3,a1,2298 <UDISK_SCSI_CMD_Deal+0x1d8>
    227c:	89818713          	addi	a4,gp,-1896 # 200001e8 <Udisk_Capability>
    2280:	4314                	lw	a3,0(a4)
    2282:	82e1                	srli	a3,a3,0x18
    2284:	a3d4                	sb	a3,4(a5)
    2286:	4314                	lw	a3,0(a4)
    2288:	82c1                	srli	a3,a3,0x10
    228a:	b3d4                	sb	a3,5(a5)
    228c:	4314                	lw	a3,0(a4)
    228e:	4318                	lw	a4,0(a4)
    2290:	82a1                	srli	a3,a3,0x8
    2292:	a3f4                	sb	a3,6(a5)
    2294:	b3f8                	sb	a4,7(a5)
    2296:	bf55                	j	224a <UDISK_SCSI_CMD_Deal+0x18a>
    2298:	00d60533          	add	a0,a2,a3
    229c:	2108                	lbu	a0,0(a0)
    229e:	00d785b3          	add	a1,a5,a3
    22a2:	0685                	addi	a3,a3,1
    22a4:	a188                	sb	a0,0(a1)
    22a6:	0ff6f693          	andi	a3,a3,255
    22aa:	b7f1                	j	2276 <UDISK_SCSI_CMD_Deal+0x1b6>
    22ac:	89e1c683          	lbu	a3,-1890(gp) # 200001ee <Udisk_Status>
    22b0:	8a85                	andi	a3,a3,1
    22b2:	c2b5                	beqz	a3,2316 <UDISK_SCSI_CMD_Deal+0x256>
    22b4:	4310                	lw	a2,0(a4)
    22b6:	46a1                	li	a3,8
    22b8:	00c6f363          	bgeu	a3,a2,22be <UDISK_SCSI_CMD_Deal+0x1fe>
    22bc:	c314                	sw	a3,0(a4)
    22be:	4681                	li	a3,0
    22c0:	83018613          	addi	a2,gp,-2000 # 20000180 <UDISK_Rd_Capacity>
    22c4:	430c                	lw	a1,0(a4)
    22c6:	02b6e463          	bltu	a3,a1,22ee <UDISK_SCSI_CMD_Deal+0x22e>
    22ca:	89818713          	addi	a4,gp,-1896 # 200001e8 <Udisk_Capability>
    22ce:	4314                	lw	a3,0(a4)
    22d0:	16fd                	addi	a3,a3,-1
    22d2:	82e1                	srli	a3,a3,0x18
    22d4:	a394                	sb	a3,0(a5)
    22d6:	4314                	lw	a3,0(a4)
    22d8:	16fd                	addi	a3,a3,-1
    22da:	82c1                	srli	a3,a3,0x10
    22dc:	b394                	sb	a3,1(a5)
    22de:	4314                	lw	a3,0(a4)
    22e0:	4318                	lw	a4,0(a4)
    22e2:	16fd                	addi	a3,a3,-1
    22e4:	82a1                	srli	a3,a3,0x8
    22e6:	177d                	addi	a4,a4,-1
    22e8:	a3b4                	sb	a3,2(a5)
    22ea:	b3b8                	sb	a4,3(a5)
    22ec:	bfb9                	j	224a <UDISK_SCSI_CMD_Deal+0x18a>
    22ee:	00d60533          	add	a0,a2,a3
    22f2:	2108                	lbu	a0,0(a0)
    22f4:	00d785b3          	add	a1,a5,a3
    22f8:	0685                	addi	a3,a3,1
    22fa:	a188                	sb	a0,0(a1)
    22fc:	0ff6f693          	andi	a3,a3,255
    2300:	b7d1                	j	22c4 <UDISK_SCSI_CMD_Deal+0x204>
    2302:	00d60533          	add	a0,a2,a3
    2306:	2108                	lbu	a0,0(a0)
    2308:	00d785b3          	add	a1,a5,a3
    230c:	0685                	addi	a3,a3,1
    230e:	a188                	sb	a0,0(a1)
    2310:	0ff6f693          	andi	a3,a3,255
    2314:	bd5d                	j	21ca <UDISK_SCSI_CMD_Deal+0x10a>
    2316:	4709                	li	a4,2
    2318:	88e18ea3          	sb	a4,-1891(gp) # 200001ed <Udisk_Sense_Key>
    231c:	03a00713          	li	a4,58
    2320:	88e18e23          	sb	a4,-1892(gp) # 200001ec <Udisk_Sense_ASC>
    2324:	4705                	li	a4,1
    2326:	88e18a23          	sb	a4,-1900(gp) # 200001e4 <Udisk_CSW_Status>
    232a:	d07ff0ef          	jal	ra,2030 <UDISK_CMD_Deal_Fail>
    232e:	b5ed                	j	2218 <UDISK_SCSI_CMD_Deal+0x158>
    2330:	3b90                	lbu	a2,17(a5)
    2332:	03f00693          	li	a3,63
    2336:	04d61663          	bne	a2,a3,2382 <UDISK_SCSI_CMD_Deal+0x2c2>
    233a:	4310                	lw	a2,0(a4)
    233c:	46c1                	li	a3,16
    233e:	00c6f363          	bgeu	a3,a2,2344 <UDISK_SCSI_CMD_Deal+0x284>
    2342:	c314                	sw	a3,0(a4)
    2344:	6611                	lui	a2,0x4
    2346:	4681                	li	a3,0
    2348:	15060613          	addi	a2,a2,336 # 4150 <UDISK_Mode_Senese_5A>
    234c:	430c                	lw	a1,0(a4)
    234e:	02b6e063          	bltu	a3,a1,236e <UDISK_SCSI_CMD_Deal+0x2ae>
    2352:	89818713          	addi	a4,gp,-1896 # 200001e8 <Udisk_Capability>
    2356:	4314                	lw	a3,0(a4)
    2358:	82e1                	srli	a3,a3,0x18
    235a:	a794                	sb	a3,8(a5)
    235c:	4314                	lw	a3,0(a4)
    235e:	82c1                	srli	a3,a3,0x10
    2360:	b794                	sb	a3,9(a5)
    2362:	4314                	lw	a3,0(a4)
    2364:	4318                	lw	a4,0(a4)
    2366:	82a1                	srli	a3,a3,0x8
    2368:	a7b4                	sb	a3,10(a5)
    236a:	b7b8                	sb	a4,11(a5)
    236c:	bdbd                	j	21ea <UDISK_SCSI_CMD_Deal+0x12a>
    236e:	00d60533          	add	a0,a2,a3
    2372:	2108                	lbu	a0,0(a0)
    2374:	00d785b3          	add	a1,a5,a3
    2378:	0685                	addi	a3,a3,1
    237a:	a188                	sb	a0,0(a1)
    237c:	0ff6f693          	andi	a3,a3,255
    2380:	b7f1                	j	234c <UDISK_SCSI_CMD_Deal+0x28c>
    2382:	4715                	li	a4,5
    2384:	88e18ea3          	sb	a4,-1891(gp) # 200001ed <Udisk_Sense_Key>
    2388:	02000713          	li	a4,32
    238c:	bf51                	j	2320 <UDISK_SCSI_CMD_Deal+0x260>
    238e:	07000693          	li	a3,112
    2392:	a396                	sh	a3,0(a5)
    2394:	2114                	lbu	a3,0(a0)
    2396:	000781a3          	sb	zero,3(a5)
    239a:	0007a423          	sw	zero,8(a5)
    239e:	a3b4                	sb	a3,2(a5)
    23a0:	0a0006b7          	lui	a3,0xa000
    23a4:	c3d4                	sw	a3,4(a5)
    23a6:	2194                	lbu	a3,0(a1)
    23a8:	000786a3          	sb	zero,13(a5)
    23ac:	00079723          	sh	zero,14(a5)
    23b0:	a7d4                	sb	a3,12(a5)
    23b2:	00079823          	sh	zero,16(a5)
    23b6:	8af1a023          	sw	a5,-1888(gp) # 200001f0 <pEndp2_Buf>
    23ba:	00070023          	sb	zero,0(a4) # 3f0000 <_data_lma+0x3ebd74>
    23be:	bda9                	j	2218 <UDISK_SCSI_CMD_Deal+0x158>
    23c0:	89e1c783          	lbu	a5,-1890(gp) # 200001ee <Udisk_Status>
    23c4:	8b85                	andi	a5,a5,1
    23c6:	c791                	beqz	a5,23d2 <UDISK_SCSI_CMD_Deal+0x312>
    23c8:	00050023          	sb	zero,0(a0)
    23cc:	00058023          	sb	zero,0(a1) # 1000 <ClearEP_KIND+0x14>
    23d0:	b7ed                	j	23ba <UDISK_SCSI_CMD_Deal+0x2fa>
    23d2:	4789                	li	a5,2
    23d4:	a11c                	sb	a5,0(a0)
    23d6:	03a00793          	li	a5,58
    23da:	a19c                	sb	a5,0(a1)
    23dc:	4785                	li	a5,1
    23de:	a31c                	sb	a5,0(a4)
    23e0:	229c                	lbu	a5,0(a3)
    23e2:	0017e793          	ori	a5,a5,1
    23e6:	a29c                	sb	a5,0(a3)
    23e8:	b789                	j	232a <UDISK_SCSI_CMD_Deal+0x26a>
    23ea:	4715                	li	a4,5
    23ec:	88e18ea3          	sb	a4,-1891(gp) # 200001ed <Udisk_Sense_Key>
    23f0:	02000713          	li	a4,32
    23f4:	88e18e23          	sb	a4,-1892(gp) # 200001ec <Udisk_Sense_ASC>
    23f8:	4709                	li	a4,2
    23fa:	88e18a23          	sb	a4,-1900(gp) # 200001e4 <Udisk_CSW_Status>
    23fe:	229c                	lbu	a5,0(a3)
    2400:	0017e793          	ori	a5,a5,1
    2404:	a29c                	sb	a5,0(a3)
    2406:	229c                	lbu	a5,0(a3)
    2408:	0027e793          	ori	a5,a5,2
    240c:	bfe9                	j	23e6 <UDISK_SCSI_CMD_Deal+0x326>

0000240e <UDISK_Bulk_UpData>:
    240e:	d23fd2ef          	jal	t0,130 <__riscv_save_0>
    2412:	81a18713          	addi	a4,gp,-2022 # 2000016a <UDISK_Pack_Size>
    2416:	88c18793          	addi	a5,gp,-1908 # 200001dc <UDISK_Transfer_DataLen>
    241a:	2316                	lhu	a3,0(a4)
    241c:	4390                	lw	a2,0(a5)
    241e:	02c6f663          	bgeu	a3,a2,244a <UDISK_Bulk_UpData+0x3c>
    2422:	2312                	lhu	a2,0(a4)
    2424:	2316                	lhu	a3,0(a4)
    2426:	4398                	lw	a4,0(a5)
    2428:	0642                	slli	a2,a2,0x10
    242a:	8241                	srli	a2,a2,0x10
    242c:	8f15                	sub	a4,a4,a3
    242e:	c398                	sw	a4,0(a5)
    2430:	8a01a583          	lw	a1,-1888(gp) # 200001f0 <pEndp2_Buf>
    2434:	08200513          	li	a0,130
    2438:	db5fe0ef          	jal	ra,11ec <USB_SIL_Write>
    243c:	03000593          	li	a1,48
    2440:	4509                	li	a0,2
    2442:	acbfe0ef          	jal	ra,f0c <SetEPTxStatus>
    2446:	d0ffd06f          	j	154 <__riscv_restore_0>
    244a:	4390                	lw	a2,0(a5)
    244c:	0007a023          	sw	zero,0(a5)
    2450:	89f18793          	addi	a5,gp,-1889 # 200001ef <Udisk_Transfer_Status>
    2454:	2398                	lbu	a4,0(a5)
    2456:	0fe77713          	andi	a4,a4,254
    245a:	a398                	sb	a4,0(a5)
    245c:	bfd1                	j	2430 <UDISK_Bulk_UpData+0x22>

0000245e <UDISK_Up_CSW>:
    245e:	cd3fd2ef          	jal	t0,130 <__riscv_save_0>
    2462:	53425737          	lui	a4,0x53425
    2466:	88018fa3          	sb	zero,-1889(gp) # 200001ef <Udisk_Transfer_Status>
    246a:	35570713          	addi	a4,a4,853 # 53425355 <_eusrstack+0x33420355>
    246e:	d3418793          	addi	a5,gp,-716 # 20000684 <mBOC>
    2472:	c398                	sw	a4,0(a5)
    2474:	89018713          	addi	a4,gp,-1904 # 200001e0 <Udisk_CBW_Tag_Save>
    2478:	2314                	lbu	a3,0(a4)
    247a:	0007a423          	sw	zero,8(a5)
    247e:	4635                	li	a2,13
    2480:	a3d4                	sb	a3,4(a5)
    2482:	3314                	lbu	a3,1(a4)
    2484:	d3418593          	addi	a1,gp,-716 # 20000684 <mBOC>
    2488:	08200513          	li	a0,130
    248c:	b3d4                	sb	a3,5(a5)
    248e:	2334                	lbu	a3,2(a4)
    2490:	3338                	lbu	a4,3(a4)
    2492:	a3f4                	sb	a3,6(a5)
    2494:	b3f8                	sb	a4,7(a5)
    2496:	8941c703          	lbu	a4,-1900(gp) # 200001e4 <Udisk_CSW_Status>
    249a:	a7d8                	sb	a4,12(a5)
    249c:	d51fe0ef          	jal	ra,11ec <USB_SIL_Write>
    24a0:	03000593          	li	a1,48
    24a4:	4509                	li	a0,2
    24a6:	a67fe0ef          	jal	ra,f0c <SetEPTxStatus>
    24aa:	cabfd06f          	j	154 <__riscv_restore_0>

000024ae <UDISK_Up_OnePack>:
    24ae:	c83fd2ef          	jal	t0,130 <__riscv_save_0>
    24b2:	88818793          	addi	a5,gp,-1912 # 200001d8 <UDISK_Sec_Pack_Count>
    24b6:	239e                	lhu	a5,0(a5)
    24b8:	88818413          	addi	s0,gp,-1912 # 200001d8 <UDISK_Sec_Pack_Count>
    24bc:	07c2                	slli	a5,a5,0x10
    24be:	83c1                	srli	a5,a5,0x10
    24c0:	eb8d                	bnez	a5,24f2 <UDISK_Up_OnePack+0x44>
    24c2:	8841a503          	lw	a0,-1916(gp) # 200001d4 <UDISK_Cur_Sec_Lba>
    24c6:	4605                	li	a2,1
    24c8:	93418593          	addi	a1,gp,-1740 # 20000284 <SD_RD_BUF>
    24cc:	a17ff0ef          	jal	ra,1ee2 <SD_ReadBlocks>
    24d0:	c10d                	beqz	a0,24f2 <UDISK_Up_OnePack+0x44>
    24d2:	470d                	li	a4,3
    24d4:	88e18ea3          	sb	a4,-1891(gp) # 200001ed <Udisk_Sense_Key>
    24d8:	4745                	li	a4,17
    24da:	88e18e23          	sb	a4,-1892(gp) # 200001ec <Udisk_Sense_ASC>
    24de:	4705                	li	a4,1
    24e0:	88e18a23          	sb	a4,-1900(gp) # 200001e4 <Udisk_CSW_Status>
    24e4:	89f18793          	addi	a5,gp,-1889 # 200001ef <Udisk_Transfer_Status>
    24e8:	2398                	lbu	a4,0(a5)
    24ea:	0fe77713          	andi	a4,a4,254
    24ee:	a398                	sb	a4,0(a5)
    24f0:	a095                	j	2554 <UDISK_Up_OnePack+0xa6>
    24f2:	81a18493          	addi	s1,gp,-2022 # 2000016a <UDISK_Pack_Size>
    24f6:	201e                	lhu	a5,0(s0)
    24f8:	208e                	lhu	a1,0(s1)
    24fa:	2092                	lhu	a2,0(s1)
    24fc:	93418913          	addi	s2,gp,-1740 # 20000284 <SD_RD_BUF>
    2500:	02f585b3          	mul	a1,a1,a5
    2504:	08200513          	li	a0,130
    2508:	95ca                	add	a1,a1,s2
    250a:	ce3fe0ef          	jal	ra,11ec <USB_SIL_Write>
    250e:	03000593          	li	a1,48
    2512:	4509                	li	a0,2
    2514:	9f9fe0ef          	jal	ra,f0c <SetEPTxStatus>
    2518:	201e                	lhu	a5,0(s0)
    251a:	0785                	addi	a5,a5,1
    251c:	07c2                	slli	a5,a5,0x10
    251e:	83c1                	srli	a5,a5,0x10
    2520:	a01e                	sh	a5,0(s0)
    2522:	88c18693          	addi	a3,gp,-1908 # 200001dc <UDISK_Transfer_DataLen>
    2526:	2092                	lhu	a2,0(s1)
    2528:	4298                	lw	a4,0(a3)
    252a:	88c18793          	addi	a5,gp,-1908 # 200001dc <UDISK_Transfer_DataLen>
    252e:	8f11                	sub	a4,a4,a2
    2530:	c298                	sw	a4,0(a3)
    2532:	2016                	lhu	a3,0(s0)
    2534:	2092                	lhu	a2,0(s1)
    2536:	20000713          	li	a4,512
    253a:	02c74733          	div	a4,a4,a2
    253e:	00d71963          	bne	a4,a3,2550 <UDISK_Up_OnePack+0xa2>
    2542:	00041023          	sh	zero,0(s0)
    2546:	88418713          	addi	a4,gp,-1916 # 200001d4 <UDISK_Cur_Sec_Lba>
    254a:	4314                	lw	a3,0(a4)
    254c:	0685                	addi	a3,a3,1
    254e:	c314                	sw	a3,0(a4)
    2550:	439c                	lw	a5,0(a5)
    2552:	dbc9                	beqz	a5,24e4 <UDISK_Up_OnePack+0x36>
    2554:	c01fd06f          	j	154 <__riscv_restore_0>

00002558 <UDISK_In_EP_Deal>:
    2558:	bd9fd2ef          	jal	t0,130 <__riscv_save_0>
    255c:	89f18793          	addi	a5,gp,-1889 # 200001ef <Udisk_Transfer_Status>
    2560:	2398                	lbu	a4,0(a5)
    2562:	8b05                	andi	a4,a4,1
    2564:	cf09                	beqz	a4,257e <UDISK_In_EP_Deal+0x26>
    2566:	d431c703          	lbu	a4,-701(gp) # 20000693 <mBOC+0xf>
    256a:	02800793          	li	a5,40
    256e:	00f71563          	bne	a4,a5,2578 <UDISK_In_EP_Deal+0x20>
    2572:	3f35                	jal	24ae <UDISK_Up_OnePack>
    2574:	be1fd06f          	j	154 <__riscv_restore_0>
    2578:	e97ff0ef          	jal	ra,240e <UDISK_Bulk_UpData>
    257c:	bfe5                	j	2574 <UDISK_In_EP_Deal+0x1c>
    257e:	239c                	lbu	a5,0(a5)
    2580:	8b91                	andi	a5,a5,4
    2582:	dbed                	beqz	a5,2574 <UDISK_In_EP_Deal+0x1c>
    2584:	edbff0ef          	jal	ra,245e <UDISK_Up_CSW>
    2588:	b7f5                	j	2574 <UDISK_In_EP_Deal+0x1c>

0000258a <UDISK_Down_OnePack>:
    258a:	b8dfd2ef          	jal	t0,116 <__riscv_save_4>
    258e:	88818913          	addi	s2,gp,-1912 # 200001d8 <UDISK_Sec_Pack_Count>
    2592:	81a18413          	addi	s0,gp,-2022 # 2000016a <UDISK_Pack_Size>
    2596:	00095683          	lhu	a3,0(s2)
    259a:	201e                	lhu	a5,0(s0)
    259c:	2012                	lhu	a2,0(s0)
    259e:	02d787b3          	mul	a5,a5,a3
    25a2:	b3418713          	addi	a4,gp,-1228 # 20000484 <SD_WR_BUF>
    25a6:	85aa                	mv	a1,a0
    25a8:	88c18493          	addi	s1,gp,-1908 # 200001dc <UDISK_Transfer_DataLen>
    25ac:	00f70533          	add	a0,a4,a5
    25b0:	05b000ef          	jal	ra,2e0a <memcpy>
    25b4:	00095783          	lhu	a5,0(s2)
    25b8:	0785                	addi	a5,a5,1
    25ba:	07c2                	slli	a5,a5,0x10
    25bc:	83c1                	srli	a5,a5,0x10
    25be:	00f91023          	sh	a5,0(s2)
    25c2:	201a                	lhu	a4,0(s0)
    25c4:	409c                	lw	a5,0(s1)
    25c6:	8f99                	sub	a5,a5,a4
    25c8:	c09c                	sw	a5,0(s1)
    25ca:	00095703          	lhu	a4,0(s2)
    25ce:	2016                	lhu	a3,0(s0)
    25d0:	20000793          	li	a5,512
    25d4:	02d7c7b3          	div	a5,a5,a3
    25d8:	02e79c63          	bne	a5,a4,2610 <UDISK_Down_OnePack+0x86>
    25dc:	88418793          	addi	a5,gp,-1916 # 200001d4 <UDISK_Cur_Sec_Lba>
    25e0:	4388                	lw	a0,0(a5)
    25e2:	4605                	li	a2,1
    25e4:	b3418593          	addi	a1,gp,-1228 # 20000484 <SD_WR_BUF>
    25e8:	96dff0ef          	jal	ra,1f54 <SD_WriteBlocks>
    25ec:	88418413          	addi	s0,gp,-1916 # 200001d4 <UDISK_Cur_Sec_Lba>
    25f0:	c115                	beqz	a0,2614 <UDISK_Down_OnePack+0x8a>
    25f2:	470d                	li	a4,3
    25f4:	88e18ea3          	sb	a4,-1891(gp) # 200001ed <Udisk_Sense_Key>
    25f8:	4731                	li	a4,12
    25fa:	88e18e23          	sb	a4,-1892(gp) # 200001ec <Udisk_Sense_ASC>
    25fe:	4705                	li	a4,1
    2600:	88e18a23          	sb	a4,-1900(gp) # 200001e4 <Udisk_CSW_Status>
    2604:	89f18793          	addi	a5,gp,-1889 # 200001ef <Udisk_Transfer_Status>
    2608:	2398                	lbu	a4,0(a5)
    260a:	0fd77713          	andi	a4,a4,253
    260e:	a398                	sb	a4,0(a5)
    2610:	b3bfd06f          	j	14a <__riscv_restore_4>
    2614:	409c                	lw	a5,0(s1)
    2616:	88818a13          	addi	s4,gp,-1912 # 200001d8 <UDISK_Sec_Pack_Count>
    261a:	eb89                	bnez	a5,262c <UDISK_Down_OnePack+0xa2>
    261c:	89f18793          	addi	a5,gp,-1889 # 200001ef <Udisk_Transfer_Status>
    2620:	2398                	lbu	a4,0(a5)
    2622:	0fd77713          	andi	a4,a4,253
    2626:	a398                	sb	a4,0(a5)
    2628:	e37ff0ef          	jal	ra,245e <UDISK_Up_CSW>
    262c:	000a1023          	sh	zero,0(s4)
    2630:	401c                	lw	a5,0(s0)
    2632:	0785                	addi	a5,a5,1
    2634:	c01c                	sw	a5,0(s0)
    2636:	bfe9                	j	2610 <UDISK_Down_OnePack+0x86>

00002638 <UDISK_Out_EP_Deal>:
    2638:	af9fd2ef          	jal	t0,130 <__riscv_save_0>
    263c:	89f18793          	addi	a5,gp,-1889 # 200001ef <Udisk_Transfer_Status>
    2640:	239c                	lbu	a5,0(a5)
    2642:	8b89                	andi	a5,a5,2
    2644:	c789                	beqz	a5,264e <UDISK_Out_EP_Deal+0x16>
    2646:	f45ff0ef          	jal	ra,258a <UDISK_Down_OnePack>
    264a:	b0bfd06f          	j	154 <__riscv_restore_0>
    264e:	47fd                	li	a5,31
    2650:	fef59de3          	bne	a1,a5,264a <UDISK_Out_EP_Deal+0x12>
    2654:	882a                	mv	a6,a0
    2656:	89f18413          	addi	s0,gp,-1889 # 200001ef <Udisk_Transfer_Status>
    265a:	4781                	li	a5,0
    265c:	d3418493          	addi	s1,gp,-716 # 20000684 <mBOC>
    2660:	477d                	li	a4,31
    2662:	00f806b3          	add	a3,a6,a5
    2666:	2290                	lbu	a2,0(a3)
    2668:	00f486b3          	add	a3,s1,a5
    266c:	0785                	addi	a5,a5,1
    266e:	a290                	sb	a2,0(a3)
    2670:	fee799e3          	bne	a5,a4,2662 <UDISK_Out_EP_Deal+0x2a>
    2674:	a4dff0ef          	jal	ra,20c0 <UDISK_SCSI_CMD_Deal>
    2678:	201c                	lbu	a5,0(s0)
    267a:	8b89                	andi	a5,a5,2
    267c:	f7f9                	bnez	a5,264a <UDISK_Out_EP_Deal+0x12>
    267e:	201c                	lbu	a5,0(s0)
    2680:	8b85                	andi	a5,a5,1
    2682:	cf81                	beqz	a5,269a <UDISK_Out_EP_Deal+0x62>
    2684:	34f8                	lbu	a4,15(s1)
    2686:	02800793          	li	a5,40
    268a:	00f71563          	bne	a4,a5,2694 <UDISK_Out_EP_Deal+0x5c>
    268e:	e21ff0ef          	jal	ra,24ae <UDISK_Up_OnePack>
    2692:	bf65                	j	264a <UDISK_Out_EP_Deal+0x12>
    2694:	d7bff0ef          	jal	ra,240e <UDISK_Bulk_UpData>
    2698:	bf4d                	j	264a <UDISK_Out_EP_Deal+0x12>
    269a:	8941c783          	lbu	a5,-1900(gp) # 200001e4 <Udisk_CSW_Status>
    269e:	0ff7f793          	andi	a5,a5,255
    26a2:	f7c5                	bnez	a5,264a <UDISK_Out_EP_Deal+0x12>
    26a4:	dbbff0ef          	jal	ra,245e <UDISK_Up_CSW>
    26a8:	b74d                	j	264a <UDISK_Out_EP_Deal+0x12>

000026aa <NMI_Handler>:
    26aa:	a001                	j	26aa <NMI_Handler>

000026ac <HardFault_Handler>:
    26ac:	beef07b7          	lui	a5,0xbeef0
    26b0:	e000e737          	lui	a4,0xe000e
    26b4:	08078793          	addi	a5,a5,128 # beef0080 <_eusrstack+0x9eeeb080>
    26b8:	c73c                	sw	a5,72(a4)
    26ba:	a001                	j	26ba <HardFault_Handler+0xe>

000026bc <main>:
    26bc:	a75fd2ef          	jal	t0,130 <__riscv_save_0>
    26c0:	1141                	addi	sp,sp,-16
    26c2:	4505                	li	a0,1
    26c4:	267d                	jal	2a72 <NVIC_PriorityGroupConfig>
    26c6:	2a05                	jal	27f6 <SystemCoreClockUpdate>
    26c8:	2525                	jal	2cf0 <Delay_Init>
    26ca:	6571                	lui	a0,0x1c
    26cc:	20050513          	addi	a0,a0,512 # 1c200 <_data_lma+0x17f74>
    26d0:	2db5                	jal	2d4c <USART_Printf_Init>
    26d2:	81c1a583          	lw	a1,-2020(gp) # 2000016c <SystemCoreClock>
    26d6:	00004537          	lui	a0,0x4
    26da:	17850513          	addi	a0,a0,376 # 4178 <UDISK_Rd_Format_Capacity+0xc>
    26de:	7de000ef          	jal	ra,2ebc <iprintf>
    26e2:	00004537          	lui	a0,0x4
    26e6:	18850513          	addi	a0,a0,392 # 4188 <UDISK_Rd_Format_Capacity+0x1c>
    26ea:	0e7000ef          	jal	ra,2fd0 <puts>
    26ee:	d14ff0ef          	jal	ra,1c02 <SD_Port_Init>
    26f2:	00a10593          	addi	a1,sp,10
    26f6:	0068                	addi	a0,sp,12
    26f8:	c602                	sw	zero,12(sp)
    26fa:	00011523          	sh	zero,10(sp)
    26fe:	d6eff0ef          	jal	ra,1c6c <SD_Init>
    2702:	c901                	beqz	a0,2712 <main+0x56>
    2704:	00004537          	lui	a0,0x4
    2708:	1c450513          	addi	a0,a0,452 # 41c4 <UDISK_Rd_Format_Capacity+0x58>
    270c:	0c5000ef          	jal	ra,2fd0 <puts>
    2710:	a001                	j	2710 <main+0x54>
    2712:	852c                	lhu	a1,10(sp)
    2714:	001007b7          	lui	a5,0x100
    2718:	00004537          	lui	a0,0x4
    271c:	02b7d7b3          	divu	a5,a5,a1
    2720:	45b2                	lw	a1,12(sp)
    2722:	1d850513          	addi	a0,a0,472 # 41d8 <UDISK_Rd_Format_Capacity+0x6c>
    2726:	02f5d5b3          	divu	a1,a1,a5
    272a:	792000ef          	jal	ra,2ebc <iprintf>
    272e:	4732                	lw	a4,12(sp)
    2730:	88e1ac23          	sw	a4,-1896(gp) # 200001e8 <Udisk_Capability>
    2734:	89e1c783          	lbu	a5,-1890(gp) # 200001ee <Udisk_Status>
    2738:	0017e793          	ori	a5,a5,1
    273c:	88f18f23          	sb	a5,-1890(gp) # 200001ee <Udisk_Status>
    2740:	b09fe0ef          	jal	ra,1248 <Set_USBConfig>
    2744:	b6cfe0ef          	jal	ra,ab0 <USB_Init>
    2748:	b95fe0ef          	jal	ra,12dc <USB_Interrupts_Config>
    274c:	a001                	j	274c <main+0x90>

0000274e <SystemInit>:
    274e:	400217b7          	lui	a5,0x40021
    2752:	4398                	lw	a4,0(a5)
    2754:	f0ff06b7          	lui	a3,0xf0ff0
    2758:	00176713          	ori	a4,a4,1
    275c:	c398                	sw	a4,0(a5)
    275e:	43d8                	lw	a4,4(a5)
    2760:	8f75                	and	a4,a4,a3
    2762:	c3d8                	sw	a4,4(a5)
    2764:	4398                	lw	a4,0(a5)
    2766:	fef706b7          	lui	a3,0xfef70
    276a:	16fd                	addi	a3,a3,-1
    276c:	8f75                	and	a4,a4,a3
    276e:	c398                	sw	a4,0(a5)
    2770:	4398                	lw	a4,0(a5)
    2772:	fffc06b7          	lui	a3,0xfffc0
    2776:	16fd                	addi	a3,a3,-1
    2778:	8f75                	and	a4,a4,a3
    277a:	c398                	sw	a4,0(a5)
    277c:	43d8                	lw	a4,4(a5)
    277e:	ff0106b7          	lui	a3,0xff010
    2782:	16fd                	addi	a3,a3,-1
    2784:	8f75                	and	a4,a4,a3
    2786:	c3d8                	sw	a4,4(a5)
    2788:	009f0737          	lui	a4,0x9f0
    278c:	c798                	sw	a4,8(a5)
    278e:	400246b7          	lui	a3,0x40024
    2792:	8006a703          	lw	a4,-2048(a3) # 40023800 <_eusrstack+0x2001e800>
    2796:	01076713          	ori	a4,a4,16
    279a:	80e6a023          	sw	a4,-2048(a3)
    279e:	43d8                	lw	a4,4(a5)
    27a0:	ffc106b7          	lui	a3,0xffc10
    27a4:	16fd                	addi	a3,a3,-1
    27a6:	c3d8                	sw	a4,4(a5)
    27a8:	43d8                	lw	a4,4(a5)
    27aa:	c3d8                	sw	a4,4(a5)
    27ac:	43d8                	lw	a4,4(a5)
    27ae:	40076713          	ori	a4,a4,1024
    27b2:	c3d8                	sw	a4,4(a5)
    27b4:	43d8                	lw	a4,4(a5)
    27b6:	8f75                	and	a4,a4,a3
    27b8:	c3d8                	sw	a4,4(a5)
    27ba:	43d8                	lw	a4,4(a5)
    27bc:	001006b7          	lui	a3,0x100
    27c0:	8f55                	or	a4,a4,a3
    27c2:	c3d8                	sw	a4,4(a5)
    27c4:	4398                	lw	a4,0(a5)
    27c6:	010006b7          	lui	a3,0x1000
    27ca:	8f55                	or	a4,a4,a3
    27cc:	c398                	sw	a4,0(a5)
    27ce:	4398                	lw	a4,0(a5)
    27d0:	00671693          	slli	a3,a4,0x6
    27d4:	fe06dde3          	bgez	a3,27ce <SystemInit+0x80>
    27d8:	43d8                	lw	a4,4(a5)
    27da:	400216b7          	lui	a3,0x40021
    27de:	9b71                	andi	a4,a4,-4
    27e0:	c3d8                	sw	a4,4(a5)
    27e2:	43d8                	lw	a4,4(a5)
    27e4:	00276713          	ori	a4,a4,2
    27e8:	c3d8                	sw	a4,4(a5)
    27ea:	4721                	li	a4,8
    27ec:	42dc                	lw	a5,4(a3)
    27ee:	8bb1                	andi	a5,a5,12
    27f0:	fee79ee3          	bne	a5,a4,27ec <SystemInit+0x9e>
    27f4:	8082                	ret

000027f6 <SystemCoreClockUpdate>:
    27f6:	400216b7          	lui	a3,0x40021
    27fa:	42dc                	lw	a5,4(a3)
    27fc:	4611                	li	a2,4
    27fe:	8bb1                	andi	a5,a5,12
    2800:	81c18713          	addi	a4,gp,-2020 # 2000016c <SystemCoreClock>
    2804:	00c78563          	beq	a5,a2,280e <SystemCoreClockUpdate+0x18>
    2808:	4621                	li	a2,8
    280a:	02c78863          	beq	a5,a2,283a <SystemCoreClockUpdate+0x44>
    280e:	007a17b7          	lui	a5,0x7a1
    2812:	20078793          	addi	a5,a5,512 # 7a1200 <_data_lma+0x79cf74>
    2816:	c31c                	sw	a5,0(a4)
    2818:	400217b7          	lui	a5,0x40021
    281c:	43dc                	lw	a5,4(a5)
    281e:	8391                	srli	a5,a5,0x4
    2820:	00f7f693          	andi	a3,a5,15
    2824:	200007b7          	lui	a5,0x20000
    2828:	0d078793          	addi	a5,a5,208 # 200000d0 <AHBPrescTable>
    282c:	97b6                	add	a5,a5,a3
    282e:	2394                	lbu	a3,0(a5)
    2830:	431c                	lw	a5,0(a4)
    2832:	00d7d7b3          	srl	a5,a5,a3
    2836:	c31c                	sw	a5,0(a4)
    2838:	8082                	ret
    283a:	42dc                	lw	a5,4(a3)
    283c:	42d4                	lw	a3,4(a3)
    283e:	6641                	lui	a2,0x10
    2840:	83c9                	srli	a5,a5,0x12
    2842:	8bbd                	andi	a5,a5,15
    2844:	8ef1                	and	a3,a3,a2
    2846:	0789                	addi	a5,a5,2
    2848:	4645                	li	a2,17
    284a:	00c79363          	bne	a5,a2,2850 <SystemCoreClockUpdate+0x5a>
    284e:	47c9                	li	a5,18
    2850:	ee81                	bnez	a3,2868 <SystemCoreClockUpdate+0x72>
    2852:	400246b7          	lui	a3,0x40024
    2856:	8006a683          	lw	a3,-2048(a3) # 40023800 <_eusrstack+0x2001e800>
    285a:	8ac1                	andi	a3,a3,16
    285c:	ce89                	beqz	a3,2876 <SystemCoreClockUpdate+0x80>
    285e:	007a16b7          	lui	a3,0x7a1
    2862:	20068693          	addi	a3,a3,512 # 7a1200 <_data_lma+0x79cf74>
    2866:	a821                	j	287e <SystemCoreClockUpdate+0x88>
    2868:	400216b7          	lui	a3,0x40021
    286c:	42d4                	lw	a3,4(a3)
    286e:	00e69613          	slli	a2,a3,0xe
    2872:	fe0656e3          	bgez	a2,285e <SystemCoreClockUpdate+0x68>
    2876:	003d16b7          	lui	a3,0x3d1
    287a:	90068693          	addi	a3,a3,-1792 # 3d0900 <_data_lma+0x3cc674>
    287e:	02d787b3          	mul	a5,a5,a3
    2882:	bf51                	j	2816 <SystemCoreClockUpdate+0x20>

00002884 <ADC1_2_IRQHandler>:
    2884:	a001                	j	2884 <ADC1_2_IRQHandler>

00002886 <handle_reset>:
    2886:	1fffe197          	auipc	gp,0x1fffe
    288a:	0ca18193          	addi	gp,gp,202 # 20000950 <__global_pointer$>
    288e:	20002117          	auipc	sp,0x20002
    2892:	77210113          	addi	sp,sp,1906 # 20005000 <_eusrstack>
    2896:	00002517          	auipc	a0,0x2
    289a:	9f650513          	addi	a0,a0,-1546 # 428c <_data_lma>
    289e:	1fffd597          	auipc	a1,0x1fffd
    28a2:	76258593          	addi	a1,a1,1890 # 20000000 <_data_vma>
    28a6:	84018613          	addi	a2,gp,-1984 # 20000190 <_edata>
    28aa:	00c5fa63          	bgeu	a1,a2,28be <handle_reset+0x38>
    28ae:	00052283          	lw	t0,0(a0)
    28b2:	0055a023          	sw	t0,0(a1)
    28b6:	0511                	addi	a0,a0,4
    28b8:	0591                	addi	a1,a1,4
    28ba:	fec5eae3          	bltu	a1,a2,28ae <handle_reset+0x28>
    28be:	84018513          	addi	a0,gp,-1984 # 20000190 <_edata>
    28c2:	d5818593          	addi	a1,gp,-680 # 200006a8 <_ebss>
    28c6:	00b57763          	bgeu	a0,a1,28d4 <handle_reset+0x4e>
    28ca:	00052023          	sw	zero,0(a0)
    28ce:	0511                	addi	a0,a0,4
    28d0:	feb56de3          	bltu	a0,a1,28ca <handle_reset+0x44>
    28d4:	42fd                	li	t0,31
    28d6:	bc029073          	csrw	0xbc0,t0
    28da:	428d                	li	t0,3
    28dc:	80429073          	csrw	0x804,t0
    28e0:	08800293          	li	t0,136
    28e4:	30029073          	csrw	mstatus,t0
    28e8:	ffffd297          	auipc	t0,0xffffd
    28ec:	71c28293          	addi	t0,t0,1820 # 4 <_einit>
    28f0:	0032e293          	ori	t0,t0,3
    28f4:	30529073          	csrw	mtvec,t0
    28f8:	e57ff0ef          	jal	ra,274e <SystemInit>
    28fc:	00000297          	auipc	t0,0x0
    2900:	dc028293          	addi	t0,t0,-576 # 26bc <main>
    2904:	34129073          	csrw	mepc,t0
    2908:	30200073          	mret

0000290c <EXTI_Init>:
    290c:	4158                	lw	a4,4(a0)
    290e:	00052803          	lw	a6,0(a0)
    2912:	454c                	lw	a1,12(a0)
    2914:	40010637          	lui	a2,0x40010
    2918:	40060793          	addi	a5,a2,1024 # 40010400 <_eusrstack+0x2000b400>
    291c:	973e                	add	a4,a4,a5
    291e:	fff84693          	not	a3,a6
    2922:	c5b1                	beqz	a1,296e <EXTI_Init+0x62>
    2924:	40062583          	lw	a1,1024(a2)
    2928:	8df5                	and	a1,a1,a3
    292a:	40b62023          	sw	a1,1024(a2)
    292e:	43d0                	lw	a2,4(a5)
    2930:	8ef1                	and	a3,a3,a2
    2932:	c3d4                	sw	a3,4(a5)
    2934:	4314                	lw	a3,0(a4)
    2936:	0106e6b3          	or	a3,a3,a6
    293a:	c314                	sw	a3,0(a4)
    293c:	4118                	lw	a4,0(a0)
    293e:	4790                	lw	a2,8(a5)
    2940:	fff74693          	not	a3,a4
    2944:	8e75                	and	a2,a2,a3
    2946:	c790                	sw	a2,8(a5)
    2948:	47d0                	lw	a2,12(a5)
    294a:	8ef1                	and	a3,a3,a2
    294c:	c7d4                	sw	a3,12(a5)
    294e:	4514                	lw	a3,8(a0)
    2950:	4641                	li	a2,16
    2952:	00c69963          	bne	a3,a2,2964 <EXTI_Init+0x58>
    2956:	4794                	lw	a3,8(a5)
    2958:	8ed9                	or	a3,a3,a4
    295a:	c794                	sw	a3,8(a5)
    295c:	47d4                	lw	a3,12(a5)
    295e:	8f55                	or	a4,a4,a3
    2960:	c7d8                	sw	a4,12(a5)
    2962:	8082                	ret
    2964:	97b6                	add	a5,a5,a3
    2966:	4394                	lw	a3,0(a5)
    2968:	8f55                	or	a4,a4,a3
    296a:	c398                	sw	a4,0(a5)
    296c:	8082                	ret
    296e:	431c                	lw	a5,0(a4)
    2970:	8ff5                	and	a5,a5,a3
    2972:	c31c                	sw	a5,0(a4)
    2974:	8082                	ret

00002976 <EXTI_ClearITPendingBit>:
    2976:	400107b7          	lui	a5,0x40010
    297a:	40a7aa23          	sw	a0,1044(a5) # 40010414 <_eusrstack+0x2000b414>
    297e:	8082                	ret

00002980 <GPIO_Init>:
    2980:	459c                	lw	a5,8(a1)
    2982:	0107f713          	andi	a4,a5,16
    2986:	00f7f813          	andi	a6,a5,15
    298a:	c701                	beqz	a4,2992 <GPIO_Init+0x12>
    298c:	41d8                	lw	a4,4(a1)
    298e:	00e86833          	or	a6,a6,a4
    2992:	40022737          	lui	a4,0x40022
    2996:	5b14                	lw	a3,48(a4)
    2998:	0f000737          	lui	a4,0xf000
    299c:	8f75                	and	a4,a4,a3
    299e:	eb4d                	bnez	a4,2a50 <GPIO_Init+0xd0>
    29a0:	4685                	li	a3,1
    29a2:	8ad18223          	sb	a3,-1884(gp) # 200001f4 <MCU_Version>
    29a6:	40011737          	lui	a4,0x40011
    29aa:	00e51563          	bne	a0,a4,29b4 <GPIO_Init+0x34>
    29ae:	219a                	lhu	a4,0(a1)
    29b0:	8335                	srli	a4,a4,0xd
    29b2:	a19a                	sh	a4,0(a1)
    29b4:	218e                	lhu	a1,0(a1)
    29b6:	0ff5f713          	andi	a4,a1,255
    29ba:	c339                	beqz	a4,2a00 <GPIO_Init+0x80>
    29bc:	4118                	lw	a4,0(a0)
    29be:	4681                	li	a3,0
    29c0:	4e85                	li	t4,1
    29c2:	4f3d                	li	t5,15
    29c4:	02800f93          	li	t6,40
    29c8:	04800293          	li	t0,72
    29cc:	4e21                	li	t3,8
    29ce:	00de9633          	sll	a2,t4,a3
    29d2:	00c5f8b3          	and	a7,a1,a2
    29d6:	03161163          	bne	a2,a7,29f8 <GPIO_Init+0x78>
    29da:	00269893          	slli	a7,a3,0x2
    29de:	011f1333          	sll	t1,t5,a7
    29e2:	fff34313          	not	t1,t1
    29e6:	00e37733          	and	a4,t1,a4
    29ea:	011818b3          	sll	a7,a6,a7
    29ee:	00e8e733          	or	a4,a7,a4
    29f2:	07f79763          	bne	a5,t6,2a60 <GPIO_Init+0xe0>
    29f6:	c950                	sw	a2,20(a0)
    29f8:	0685                	addi	a3,a3,1
    29fa:	fdc69ae3          	bne	a3,t3,29ce <GPIO_Init+0x4e>
    29fe:	c118                	sw	a4,0(a0)
    2a00:	0ff00713          	li	a4,255
    2a04:	04b77563          	bgeu	a4,a1,2a4e <GPIO_Init+0xce>
    2a08:	4154                	lw	a3,4(a0)
    2a0a:	4621                	li	a2,8
    2a0c:	4e85                	li	t4,1
    2a0e:	4f3d                	li	t5,15
    2a10:	02800f93          	li	t6,40
    2a14:	04800293          	li	t0,72
    2a18:	4e41                	li	t3,16
    2a1a:	00ce98b3          	sll	a7,t4,a2
    2a1e:	0115f733          	and	a4,a1,a7
    2a22:	02e89263          	bne	a7,a4,2a46 <GPIO_Init+0xc6>
    2a26:	00261713          	slli	a4,a2,0x2
    2a2a:	1701                	addi	a4,a4,-32
    2a2c:	00ef1333          	sll	t1,t5,a4
    2a30:	fff34313          	not	t1,t1
    2a34:	00d376b3          	and	a3,t1,a3
    2a38:	00e81733          	sll	a4,a6,a4
    2a3c:	8ed9                	or	a3,a3,a4
    2a3e:	03f79563          	bne	a5,t6,2a68 <GPIO_Init+0xe8>
    2a42:	01152a23          	sw	a7,20(a0)
    2a46:	0605                	addi	a2,a2,1
    2a48:	fdc619e3          	bne	a2,t3,2a1a <GPIO_Init+0x9a>
    2a4c:	c154                	sw	a3,4(a0)
    2a4e:	8082                	ret
    2a50:	40011737          	lui	a4,0x40011
    2a54:	f6e510e3          	bne	a0,a4,29b4 <GPIO_Init+0x34>
    2a58:	8a41c703          	lbu	a4,-1884(gp) # 200001f4 <MCU_Version>
    2a5c:	df21                	beqz	a4,29b4 <GPIO_Init+0x34>
    2a5e:	bf81                	j	29ae <GPIO_Init+0x2e>
    2a60:	f8579ce3          	bne	a5,t0,29f8 <GPIO_Init+0x78>
    2a64:	c910                	sw	a2,16(a0)
    2a66:	bf49                	j	29f8 <GPIO_Init+0x78>
    2a68:	fc579fe3          	bne	a5,t0,2a46 <GPIO_Init+0xc6>
    2a6c:	01152823          	sw	a7,16(a0)
    2a70:	bfd9                	j	2a46 <GPIO_Init+0xc6>

00002a72 <NVIC_PriorityGroupConfig>:
    2a72:	8aa1a423          	sw	a0,-1880(gp) # 200001f8 <NVIC_Priority_Group>
    2a76:	8082                	ret

00002a78 <NVIC_Init>:
    2a78:	8a81a703          	lw	a4,-1880(gp) # 200001f8 <NVIC_Priority_Group>
    2a7c:	4785                	li	a5,1
    2a7e:	2114                	lbu	a3,0(a0)
    2a80:	02f71063          	bne	a4,a5,2aa0 <NVIC_Init+0x28>
    2a84:	311c                	lbu	a5,1(a0)
    2a86:	02e79c63          	bne	a5,a4,2abe <NVIC_Init+0x46>
    2a8a:	213c                	lbu	a5,2(a0)
    2a8c:	0796                	slli	a5,a5,0x5
    2a8e:	f807e793          	ori	a5,a5,-128
    2a92:	e000e737          	lui	a4,0xe000e
    2a96:	0ff7f793          	andi	a5,a5,255
    2a9a:	9736                	add	a4,a4,a3
    2a9c:	40f70023          	sb	a5,1024(a4) # e000e400 <_eusrstack+0xc0009400>
    2aa0:	4705                	li	a4,1
    2aa2:	0056d793          	srli	a5,a3,0x5
    2aa6:	00d71733          	sll	a4,a4,a3
    2aaa:	4154                	lw	a3,4(a0)
    2aac:	ce89                	beqz	a3,2ac6 <NVIC_Init+0x4e>
    2aae:	04078793          	addi	a5,a5,64
    2ab2:	078a                	slli	a5,a5,0x2
    2ab4:	e000e6b7          	lui	a3,0xe000e
    2ab8:	97b6                	add	a5,a5,a3
    2aba:	c398                	sw	a4,0(a5)
    2abc:	8082                	ret
    2abe:	f3ed                	bnez	a5,2aa0 <NVIC_Init+0x28>
    2ac0:	213c                	lbu	a5,2(a0)
    2ac2:	0796                	slli	a5,a5,0x5
    2ac4:	b7f9                	j	2a92 <NVIC_Init+0x1a>
    2ac6:	06078793          	addi	a5,a5,96
    2aca:	b7e5                	j	2ab2 <NVIC_Init+0x3a>

00002acc <RCC_USBCLKConfig>:
    2acc:	400217b7          	lui	a5,0x40021
    2ad0:	43d8                	lw	a4,4(a5)
    2ad2:	ff4006b7          	lui	a3,0xff400
    2ad6:	16fd                	addi	a3,a3,-1
    2ad8:	8f75                	and	a4,a4,a3
    2ada:	c3d8                	sw	a4,4(a5)
    2adc:	43d8                	lw	a4,4(a5)
    2ade:	055a                	slli	a0,a0,0x16
    2ae0:	8d59                	or	a0,a0,a4
    2ae2:	c3c8                	sw	a0,4(a5)
    2ae4:	8082                	ret

00002ae6 <RCC_GetClocksFreq>:
    2ae6:	40021737          	lui	a4,0x40021
    2aea:	435c                	lw	a5,4(a4)
    2aec:	4691                	li	a3,4
    2aee:	8bb1                	andi	a5,a5,12
    2af0:	00d78563          	beq	a5,a3,2afa <RCC_GetClocksFreq+0x14>
    2af4:	46a1                	li	a3,8
    2af6:	06d78263          	beq	a5,a3,2b5a <RCC_GetClocksFreq+0x74>
    2afa:	007a17b7          	lui	a5,0x7a1
    2afe:	20078793          	addi	a5,a5,512 # 7a1200 <_data_lma+0x79cf74>
    2b02:	c11c                	sw	a5,0(a0)
    2b04:	40021637          	lui	a2,0x40021
    2b08:	425c                	lw	a5,4(a2)
    2b0a:	20000737          	lui	a4,0x20000
    2b0e:	0e070713          	addi	a4,a4,224 # 200000e0 <APBAHBPrescTable>
    2b12:	8391                	srli	a5,a5,0x4
    2b14:	8bbd                	andi	a5,a5,15
    2b16:	97ba                	add	a5,a5,a4
    2b18:	2394                	lbu	a3,0(a5)
    2b1a:	411c                	lw	a5,0(a0)
    2b1c:	00d7d7b3          	srl	a5,a5,a3
    2b20:	c15c                	sw	a5,4(a0)
    2b22:	4254                	lw	a3,4(a2)
    2b24:	82a1                	srli	a3,a3,0x8
    2b26:	8a9d                	andi	a3,a3,7
    2b28:	96ba                	add	a3,a3,a4
    2b2a:	2294                	lbu	a3,0(a3)
    2b2c:	00d7d6b3          	srl	a3,a5,a3
    2b30:	c514                	sw	a3,8(a0)
    2b32:	4254                	lw	a3,4(a2)
    2b34:	82ad                	srli	a3,a3,0xb
    2b36:	8a9d                	andi	a3,a3,7
    2b38:	9736                	add	a4,a4,a3
    2b3a:	2318                	lbu	a4,0(a4)
    2b3c:	00e7d7b3          	srl	a5,a5,a4
    2b40:	c55c                	sw	a5,12(a0)
    2b42:	4258                	lw	a4,4(a2)
    2b44:	8339                	srli	a4,a4,0xe
    2b46:	00377693          	andi	a3,a4,3
    2b4a:	82018713          	addi	a4,gp,-2016 # 20000170 <ADCPrescTable>
    2b4e:	9736                	add	a4,a4,a3
    2b50:	2318                	lbu	a4,0(a4)
    2b52:	02e7d7b3          	divu	a5,a5,a4
    2b56:	c91c                	sw	a5,16(a0)
    2b58:	8082                	ret
    2b5a:	435c                	lw	a5,4(a4)
    2b5c:	4358                	lw	a4,4(a4)
    2b5e:	66c1                	lui	a3,0x10
    2b60:	83c9                	srli	a5,a5,0x12
    2b62:	8bbd                	andi	a5,a5,15
    2b64:	8f75                	and	a4,a4,a3
    2b66:	0789                	addi	a5,a5,2
    2b68:	46c5                	li	a3,17
    2b6a:	00d79363          	bne	a5,a3,2b70 <RCC_GetClocksFreq+0x8a>
    2b6e:	47c9                	li	a5,18
    2b70:	ef01                	bnez	a4,2b88 <RCC_GetClocksFreq+0xa2>
    2b72:	40024737          	lui	a4,0x40024
    2b76:	80072703          	lw	a4,-2048(a4) # 40023800 <_eusrstack+0x2001e800>
    2b7a:	8b41                	andi	a4,a4,16
    2b7c:	cf09                	beqz	a4,2b96 <RCC_GetClocksFreq+0xb0>
    2b7e:	007a1737          	lui	a4,0x7a1
    2b82:	20070713          	addi	a4,a4,512 # 7a1200 <_data_lma+0x79cf74>
    2b86:	a821                	j	2b9e <RCC_GetClocksFreq+0xb8>
    2b88:	40021737          	lui	a4,0x40021
    2b8c:	4358                	lw	a4,4(a4)
    2b8e:	00e71693          	slli	a3,a4,0xe
    2b92:	fe06d6e3          	bgez	a3,2b7e <RCC_GetClocksFreq+0x98>
    2b96:	003d1737          	lui	a4,0x3d1
    2b9a:	90070713          	addi	a4,a4,-1792 # 3d0900 <_data_lma+0x3cc674>
    2b9e:	02e787b3          	mul	a5,a5,a4
    2ba2:	b785                	j	2b02 <RCC_GetClocksFreq+0x1c>

00002ba4 <RCC_APB2PeriphClockCmd>:
    2ba4:	c599                	beqz	a1,2bb2 <RCC_APB2PeriphClockCmd+0xe>
    2ba6:	40021737          	lui	a4,0x40021
    2baa:	4f1c                	lw	a5,24(a4)
    2bac:	8d5d                	or	a0,a0,a5
    2bae:	cf08                	sw	a0,24(a4)
    2bb0:	8082                	ret
    2bb2:	400217b7          	lui	a5,0x40021
    2bb6:	4f98                	lw	a4,24(a5)
    2bb8:	fff54513          	not	a0,a0
    2bbc:	8d79                	and	a0,a0,a4
    2bbe:	cf88                	sw	a0,24(a5)
    2bc0:	8082                	ret

00002bc2 <RCC_APB1PeriphClockCmd>:
    2bc2:	c599                	beqz	a1,2bd0 <RCC_APB1PeriphClockCmd+0xe>
    2bc4:	40021737          	lui	a4,0x40021
    2bc8:	4f5c                	lw	a5,28(a4)
    2bca:	8d5d                	or	a0,a0,a5
    2bcc:	cf48                	sw	a0,28(a4)
    2bce:	8082                	ret
    2bd0:	400217b7          	lui	a5,0x40021
    2bd4:	4fd8                	lw	a4,28(a5)
    2bd6:	fff54513          	not	a0,a0
    2bda:	8d79                	and	a0,a0,a4
    2bdc:	cfc8                	sw	a0,28(a5)
    2bde:	8082                	ret

00002be0 <SPI_Init>:
    2be0:	211a                	lhu	a4,0(a0)
    2be2:	678d                	lui	a5,0x3
    2be4:	04078793          	addi	a5,a5,64 # 3040 <__swbuf_r+0x64>
    2be8:	21b6                	lhu	a3,2(a1)
    2bea:	8f7d                	and	a4,a4,a5
    2bec:	219e                	lhu	a5,0(a1)
    2bee:	8fd5                	or	a5,a5,a3
    2bf0:	21d6                	lhu	a3,4(a1)
    2bf2:	8fd5                	or	a5,a5,a3
    2bf4:	21f6                	lhu	a3,6(a1)
    2bf6:	8fd5                	or	a5,a5,a3
    2bf8:	2596                	lhu	a3,8(a1)
    2bfa:	8fd5                	or	a5,a5,a3
    2bfc:	25b6                	lhu	a3,10(a1)
    2bfe:	8fd5                	or	a5,a5,a3
    2c00:	25d6                	lhu	a3,12(a1)
    2c02:	8fd5                	or	a5,a5,a3
    2c04:	25f6                	lhu	a3,14(a1)
    2c06:	8fd5                	or	a5,a5,a3
    2c08:	8fd9                	or	a5,a5,a4
    2c0a:	a11e                	sh	a5,0(a0)
    2c0c:	2d5a                	lhu	a4,28(a0)
    2c0e:	77fd                	lui	a5,0xfffff
    2c10:	7ff78793          	addi	a5,a5,2047 # fffff7ff <_eusrstack+0xdfffa7ff>
    2c14:	8ff9                	and	a5,a5,a4
    2c16:	ad5e                	sh	a5,28(a0)
    2c18:	299e                	lhu	a5,16(a1)
    2c1a:	a91e                	sh	a5,16(a0)
    2c1c:	8082                	ret

00002c1e <SPI_Cmd>:
    2c1e:	211e                	lhu	a5,0(a0)
    2c20:	c589                	beqz	a1,2c2a <SPI_Cmd+0xc>
    2c22:	0407e793          	ori	a5,a5,64
    2c26:	a11e                	sh	a5,0(a0)
    2c28:	8082                	ret
    2c2a:	07c2                	slli	a5,a5,0x10
    2c2c:	83c1                	srli	a5,a5,0x10
    2c2e:	fbf7f793          	andi	a5,a5,-65
    2c32:	07c2                	slli	a5,a5,0x10
    2c34:	83c1                	srli	a5,a5,0x10
    2c36:	bfc5                	j	2c26 <SPI_Cmd+0x8>

00002c38 <USART_Init>:
    2c38:	cf8fd2ef          	jal	t0,130 <__riscv_save_0>
    2c3c:	2916                	lhu	a3,16(a0)
    2c3e:	77f5                	lui	a5,0xffffd
    2c40:	17fd                	addi	a5,a5,-1
    2c42:	8ff5                	and	a5,a5,a3
    2c44:	21f6                	lhu	a3,6(a1)
    2c46:	25da                	lhu	a4,12(a1)
    2c48:	7179                	addi	sp,sp,-48
    2c4a:	8fd5                	or	a5,a5,a3
    2c4c:	a91e                	sh	a5,16(a0)
    2c4e:	2556                	lhu	a3,12(a0)
    2c50:	77fd                	lui	a5,0xfffff
    2c52:	9f378793          	addi	a5,a5,-1549 # ffffe9f3 <_eusrstack+0xdfff99f3>
    2c56:	8ff5                	and	a5,a5,a3
    2c58:	21d6                	lhu	a3,4(a1)
    2c5a:	842a                	mv	s0,a0
    2c5c:	c62e                	sw	a1,12(sp)
    2c5e:	8fd5                	or	a5,a5,a3
    2c60:	2596                	lhu	a3,8(a1)
    2c62:	8fd5                	or	a5,a5,a3
    2c64:	25b6                	lhu	a3,10(a1)
    2c66:	8fd5                	or	a5,a5,a3
    2c68:	a55e                	sh	a5,12(a0)
    2c6a:	295e                	lhu	a5,20(a0)
    2c6c:	07c2                	slli	a5,a5,0x10
    2c6e:	83c1                	srli	a5,a5,0x10
    2c70:	cff7f793          	andi	a5,a5,-769
    2c74:	8fd9                	or	a5,a5,a4
    2c76:	a95e                	sh	a5,20(a0)
    2c78:	0868                	addi	a0,sp,28
    2c7a:	e6dff0ef          	jal	ra,2ae6 <RCC_GetClocksFreq>
    2c7e:	400147b7          	lui	a5,0x40014
    2c82:	80078793          	addi	a5,a5,-2048 # 40013800 <_eusrstack+0x2000e800>
    2c86:	45b2                	lw	a1,12(sp)
    2c88:	02f41e63          	bne	s0,a5,2cc4 <USART_Init+0x8c>
    2c8c:	57a2                	lw	a5,40(sp)
    2c8e:	4765                	li	a4,25
    2c90:	02e787b3          	mul	a5,a5,a4
    2c94:	4198                	lw	a4,0(a1)
    2c96:	06400693          	li	a3,100
    2c9a:	070a                	slli	a4,a4,0x2
    2c9c:	02e7d7b3          	divu	a5,a5,a4
    2ca0:	02d7d733          	divu	a4,a5,a3
    2ca4:	02d7f7b3          	remu	a5,a5,a3
    2ca8:	0712                	slli	a4,a4,0x4
    2caa:	0792                	slli	a5,a5,0x4
    2cac:	03278793          	addi	a5,a5,50
    2cb0:	02d7d7b3          	divu	a5,a5,a3
    2cb4:	8bbd                	andi	a5,a5,15
    2cb6:	8fd9                	or	a5,a5,a4
    2cb8:	07c2                	slli	a5,a5,0x10
    2cba:	83c1                	srli	a5,a5,0x10
    2cbc:	a41e                	sh	a5,8(s0)
    2cbe:	6145                	addi	sp,sp,48
    2cc0:	c94fd06f          	j	154 <__riscv_restore_0>
    2cc4:	5792                	lw	a5,36(sp)
    2cc6:	b7e1                	j	2c8e <USART_Init+0x56>

00002cc8 <USART_Cmd>:
    2cc8:	c591                	beqz	a1,2cd4 <USART_Cmd+0xc>
    2cca:	255e                	lhu	a5,12(a0)
    2ccc:	6709                	lui	a4,0x2
    2cce:	8fd9                	or	a5,a5,a4
    2cd0:	a55e                	sh	a5,12(a0)
    2cd2:	8082                	ret
    2cd4:	255a                	lhu	a4,12(a0)
    2cd6:	77f9                	lui	a5,0xffffe
    2cd8:	17fd                	addi	a5,a5,-1
    2cda:	8ff9                	and	a5,a5,a4
    2cdc:	bfd5                	j	2cd0 <USART_Cmd+0x8>

00002cde <USART_SendData>:
    2cde:	1ff5f593          	andi	a1,a1,511
    2ce2:	a14e                	sh	a1,4(a0)
    2ce4:	8082                	ret

00002ce6 <USART_GetFlagStatus>:
    2ce6:	210a                	lhu	a0,0(a0)
    2ce8:	8d6d                	and	a0,a0,a1
    2cea:	00a03533          	snez	a0,a0
    2cee:	8082                	ret

00002cf0 <Delay_Init>:
    2cf0:	81c1a783          	lw	a5,-2020(gp) # 2000016c <SystemCoreClock>
    2cf4:	007a1737          	lui	a4,0x7a1
    2cf8:	20070713          	addi	a4,a4,512 # 7a1200 <_data_lma+0x79cf74>
    2cfc:	02e7d7b3          	divu	a5,a5,a4
    2d00:	0ff7f793          	andi	a5,a5,255
    2d04:	8af18723          	sb	a5,-1874(gp) # 200001fe <p_us>
    2d08:	3e800713          	li	a4,1000
    2d0c:	02e787b3          	mul	a5,a5,a4
    2d10:	8af19623          	sh	a5,-1876(gp) # 200001fc <p_ms>
    2d14:	8082                	ret

00002d16 <Delay_Ms>:
    2d16:	e000f7b7          	lui	a5,0xe000f
    2d1a:	43d8                	lw	a4,4(a5)
    2d1c:	4681                	li	a3,0
    2d1e:	9b79                	andi	a4,a4,-2
    2d20:	c3d8                	sw	a4,4(a5)
    2d22:	8ac1d703          	lhu	a4,-1876(gp) # 200001fc <p_ms>
    2d26:	02a70633          	mul	a2,a4,a0
    2d2a:	cb90                	sw	a2,16(a5)
    2d2c:	cbd4                	sw	a3,20(a5)
    2d2e:	4398                	lw	a4,0(a5)
    2d30:	01076713          	ori	a4,a4,16
    2d34:	c398                	sw	a4,0(a5)
    2d36:	4398                	lw	a4,0(a5)
    2d38:	02176713          	ori	a4,a4,33
    2d3c:	c398                	sw	a4,0(a5)
    2d3e:	43d8                	lw	a4,4(a5)
    2d40:	8b05                	andi	a4,a4,1
    2d42:	df75                	beqz	a4,2d3e <Delay_Ms+0x28>
    2d44:	4398                	lw	a4,0(a5)
    2d46:	9b79                	andi	a4,a4,-2
    2d48:	c398                	sw	a4,0(a5)
    2d4a:	8082                	ret

00002d4c <USART_Printf_Init>:
    2d4c:	be4fd2ef          	jal	t0,130 <__riscv_save_0>
    2d50:	842a                	mv	s0,a0
    2d52:	6511                	lui	a0,0x4
    2d54:	1101                	addi	sp,sp,-32
    2d56:	4585                	li	a1,1
    2d58:	0511                	addi	a0,a0,4
    2d5a:	e4bff0ef          	jal	ra,2ba4 <RCC_APB2PeriphClockCmd>
    2d5e:	20000793          	li	a5,512
    2d62:	827c                	sh	a5,4(sp)
    2d64:	40011537          	lui	a0,0x40011
    2d68:	478d                	li	a5,3
    2d6a:	c43e                	sw	a5,8(sp)
    2d6c:	004c                	addi	a1,sp,4
    2d6e:	47e1                	li	a5,24
    2d70:	80050513          	addi	a0,a0,-2048 # 40010800 <_eusrstack+0x2000b800>
    2d74:	c63e                	sw	a5,12(sp)
    2d76:	c0bff0ef          	jal	ra,2980 <GPIO_Init>
    2d7a:	c822                	sw	s0,16(sp)
    2d7c:	40014437          	lui	s0,0x40014
    2d80:	000807b7          	lui	a5,0x80
    2d84:	080c                	addi	a1,sp,16
    2d86:	80040513          	addi	a0,s0,-2048 # 40013800 <_eusrstack+0x2000e800>
    2d8a:	cc3e                	sw	a5,24(sp)
    2d8c:	ca02                	sw	zero,20(sp)
    2d8e:	00011e23          	sh	zero,28(sp)
    2d92:	ea7ff0ef          	jal	ra,2c38 <USART_Init>
    2d96:	4585                	li	a1,1
    2d98:	80040513          	addi	a0,s0,-2048
    2d9c:	f2dff0ef          	jal	ra,2cc8 <USART_Cmd>
    2da0:	6105                	addi	sp,sp,32
    2da2:	bb2fd06f          	j	154 <__riscv_restore_0>

00002da6 <_write>:
    2da6:	b70fd2ef          	jal	t0,116 <__riscv_save_4>
    2daa:	400144b7          	lui	s1,0x40014
    2dae:	89ae                	mv	s3,a1
    2db0:	8932                	mv	s2,a2
    2db2:	4401                	li	s0,0
    2db4:	80048493          	addi	s1,s1,-2048 # 40013800 <_eusrstack+0x2000e800>
    2db8:	01244563          	blt	s0,s2,2dc2 <_write+0x1c>
    2dbc:	854a                	mv	a0,s2
    2dbe:	b8cfd06f          	j	14a <__riscv_restore_4>
    2dc2:	04000593          	li	a1,64
    2dc6:	8526                	mv	a0,s1
    2dc8:	f1fff0ef          	jal	ra,2ce6 <USART_GetFlagStatus>
    2dcc:	d97d                	beqz	a0,2dc2 <_write+0x1c>
    2dce:	008987b3          	add	a5,s3,s0
    2dd2:	00078583          	lb	a1,0(a5) # 80000 <_data_lma+0x7bd74>
    2dd6:	8526                	mv	a0,s1
    2dd8:	0405                	addi	s0,s0,1
    2dda:	05c2                	slli	a1,a1,0x10
    2ddc:	81c1                	srli	a1,a1,0x10
    2dde:	f01ff0ef          	jal	ra,2cde <USART_SendData>
    2de2:	bfd9                	j	2db8 <_write+0x12>

00002de4 <_sbrk>:
    2de4:	82418713          	addi	a4,gp,-2012 # 20000174 <curbrk.4672>
    2de8:	431c                	lw	a5,0(a4)
    2dea:	d5818693          	addi	a3,gp,-680 # 200006a8 <_ebss>
    2dee:	953e                	add	a0,a0,a5
    2df0:	00d56b63          	bltu	a0,a3,2e06 <_sbrk+0x22>
    2df4:	200056b7          	lui	a3,0x20005
    2df8:	80068693          	addi	a3,a3,-2048 # 20004800 <_heap_end>
    2dfc:	00a6e563          	bltu	a3,a0,2e06 <_sbrk+0x22>
    2e00:	c308                	sw	a0,0(a4)
    2e02:	853e                	mv	a0,a5
    2e04:	8082                	ret
    2e06:	57fd                	li	a5,-1
    2e08:	bfed                	j	2e02 <_sbrk+0x1e>

00002e0a <memcpy>:
    2e0a:	00a5c7b3          	xor	a5,a1,a0
    2e0e:	8b8d                	andi	a5,a5,3
    2e10:	00c50733          	add	a4,a0,a2
    2e14:	e781                	bnez	a5,2e1c <memcpy+0x12>
    2e16:	478d                	li	a5,3
    2e18:	00c7ed63          	bltu	a5,a2,2e32 <memcpy+0x28>
    2e1c:	87aa                	mv	a5,a0
    2e1e:	08e57e63          	bgeu	a0,a4,2eba <memcpy+0xb0>
    2e22:	2194                	lbu	a3,0(a1)
    2e24:	0785                	addi	a5,a5,1
    2e26:	0585                	addi	a1,a1,1
    2e28:	fed78fa3          	sb	a3,-1(a5)
    2e2c:	fee7ebe3          	bltu	a5,a4,2e22 <memcpy+0x18>
    2e30:	8082                	ret
    2e32:	00357693          	andi	a3,a0,3
    2e36:	87aa                	mv	a5,a0
    2e38:	ca89                	beqz	a3,2e4a <memcpy+0x40>
    2e3a:	2194                	lbu	a3,0(a1)
    2e3c:	0785                	addi	a5,a5,1
    2e3e:	0585                	addi	a1,a1,1
    2e40:	fed78fa3          	sb	a3,-1(a5)
    2e44:	0037f693          	andi	a3,a5,3
    2e48:	bfc5                	j	2e38 <memcpy+0x2e>
    2e4a:	ffc77693          	andi	a3,a4,-4
    2e4e:	fe068613          	addi	a2,a3,-32
    2e52:	06c7f063          	bgeu	a5,a2,2eb2 <memcpy+0xa8>
    2e56:	0005a383          	lw	t2,0(a1)
    2e5a:	0045a283          	lw	t0,4(a1)
    2e5e:	0085af83          	lw	t6,8(a1)
    2e62:	00c5af03          	lw	t5,12(a1)
    2e66:	0105ae83          	lw	t4,16(a1)
    2e6a:	0145ae03          	lw	t3,20(a1)
    2e6e:	0185a303          	lw	t1,24(a1)
    2e72:	01c5a883          	lw	a7,28(a1)
    2e76:	02458593          	addi	a1,a1,36
    2e7a:	0077a023          	sw	t2,0(a5)
    2e7e:	ffc5a803          	lw	a6,-4(a1)
    2e82:	0057a223          	sw	t0,4(a5)
    2e86:	01f7a423          	sw	t6,8(a5)
    2e8a:	01e7a623          	sw	t5,12(a5)
    2e8e:	01d7a823          	sw	t4,16(a5)
    2e92:	01c7aa23          	sw	t3,20(a5)
    2e96:	0067ac23          	sw	t1,24(a5)
    2e9a:	0117ae23          	sw	a7,28(a5)
    2e9e:	02478793          	addi	a5,a5,36
    2ea2:	ff07ae23          	sw	a6,-4(a5)
    2ea6:	b775                	j	2e52 <memcpy+0x48>
    2ea8:	4190                	lw	a2,0(a1)
    2eaa:	0791                	addi	a5,a5,4
    2eac:	0591                	addi	a1,a1,4
    2eae:	fec7ae23          	sw	a2,-4(a5)
    2eb2:	fed7ebe3          	bltu	a5,a3,2ea8 <memcpy+0x9e>
    2eb6:	f6e7e6e3          	bltu	a5,a4,2e22 <memcpy+0x18>
    2eba:	8082                	ret

00002ebc <iprintf>:
    2ebc:	7139                	addi	sp,sp,-64
    2ebe:	da3e                	sw	a5,52(sp)
    2ec0:	d22e                	sw	a1,36(sp)
    2ec2:	d432                	sw	a2,40(sp)
    2ec4:	d636                	sw	a3,44(sp)
    2ec6:	d83a                	sw	a4,48(sp)
    2ec8:	dc42                	sw	a6,56(sp)
    2eca:	de46                	sw	a7,60(sp)
    2ecc:	82818793          	addi	a5,gp,-2008 # 20000178 <_impure_ptr>
    2ed0:	cc22                	sw	s0,24(sp)
    2ed2:	4380                	lw	s0,0(a5)
    2ed4:	ca26                	sw	s1,20(sp)
    2ed6:	ce06                	sw	ra,28(sp)
    2ed8:	84aa                	mv	s1,a0
    2eda:	c409                	beqz	s0,2ee4 <iprintf+0x28>
    2edc:	4c1c                	lw	a5,24(s0)
    2ede:	e399                	bnez	a5,2ee4 <iprintf+0x28>
    2ee0:	8522                	mv	a0,s0
    2ee2:	29fd                	jal	33e0 <__sinit>
    2ee4:	440c                	lw	a1,8(s0)
    2ee6:	1054                	addi	a3,sp,36
    2ee8:	8626                	mv	a2,s1
    2eea:	8522                	mv	a0,s0
    2eec:	c636                	sw	a3,12(sp)
    2eee:	139000ef          	jal	ra,3826 <_vfiprintf_r>
    2ef2:	40f2                	lw	ra,28(sp)
    2ef4:	4462                	lw	s0,24(sp)
    2ef6:	44d2                	lw	s1,20(sp)
    2ef8:	6121                	addi	sp,sp,64
    2efa:	8082                	ret

00002efc <_puts_r>:
    2efc:	1101                	addi	sp,sp,-32
    2efe:	ca26                	sw	s1,20(sp)
    2f00:	c84a                	sw	s2,16(sp)
    2f02:	ce06                	sw	ra,28(sp)
    2f04:	cc22                	sw	s0,24(sp)
    2f06:	c64e                	sw	s3,12(sp)
    2f08:	c452                	sw	s4,8(sp)
    2f0a:	84aa                	mv	s1,a0
    2f0c:	892e                	mv	s2,a1
    2f0e:	c501                	beqz	a0,2f16 <_puts_r+0x1a>
    2f10:	4d1c                	lw	a5,24(a0)
    2f12:	e391                	bnez	a5,2f16 <_puts_r+0x1a>
    2f14:	21f1                	jal	33e0 <__sinit>
    2f16:	4c9c                	lw	a5,24(s1)
    2f18:	4480                	lw	s0,8(s1)
    2f1a:	e399                	bnez	a5,2f20 <_puts_r+0x24>
    2f1c:	8526                	mv	a0,s1
    2f1e:	21c9                	jal	33e0 <__sinit>
    2f20:	00001797          	auipc	a5,0x1
    2f24:	2f078793          	addi	a5,a5,752 # 4210 <__sf_fake_stdin>
    2f28:	02f41b63          	bne	s0,a5,2f5e <_puts_r+0x62>
    2f2c:	40c0                	lw	s0,4(s1)
    2f2e:	245e                	lhu	a5,12(s0)
    2f30:	8ba1                	andi	a5,a5,8
    2f32:	c7b1                	beqz	a5,2f7e <_puts_r+0x82>
    2f34:	481c                	lw	a5,16(s0)
    2f36:	c7a1                	beqz	a5,2f7e <_puts_r+0x82>
    2f38:	59fd                	li	s3,-1
    2f3a:	4a29                	li	s4,10
    2f3c:	441c                	lw	a5,8(s0)
    2f3e:	00094583          	lbu	a1,0(s2)
    2f42:	17fd                	addi	a5,a5,-1
    2f44:	e9b1                	bnez	a1,2f98 <_puts_r+0x9c>
    2f46:	c41c                	sw	a5,8(s0)
    2f48:	0607dd63          	bgez	a5,2fc2 <_puts_r+0xc6>
    2f4c:	8622                	mv	a2,s0
    2f4e:	45a9                	li	a1,10
    2f50:	8526                	mv	a0,s1
    2f52:	2069                	jal	2fdc <__swbuf_r>
    2f54:	57fd                	li	a5,-1
    2f56:	02f50863          	beq	a0,a5,2f86 <_puts_r+0x8a>
    2f5a:	4529                	li	a0,10
    2f5c:	a035                	j	2f88 <_puts_r+0x8c>
    2f5e:	00001797          	auipc	a5,0x1
    2f62:	2d278793          	addi	a5,a5,722 # 4230 <__sf_fake_stdout>
    2f66:	00f41463          	bne	s0,a5,2f6e <_puts_r+0x72>
    2f6a:	4480                	lw	s0,8(s1)
    2f6c:	b7c9                	j	2f2e <_puts_r+0x32>
    2f6e:	00001797          	auipc	a5,0x1
    2f72:	28278793          	addi	a5,a5,642 # 41f0 <__sf_fake_stderr>
    2f76:	faf41ce3          	bne	s0,a5,2f2e <_puts_r+0x32>
    2f7a:	44c0                	lw	s0,12(s1)
    2f7c:	bf4d                	j	2f2e <_puts_r+0x32>
    2f7e:	85a2                	mv	a1,s0
    2f80:	8526                	mv	a0,s1
    2f82:	2a19                	jal	3098 <__swsetup_r>
    2f84:	d955                	beqz	a0,2f38 <_puts_r+0x3c>
    2f86:	557d                	li	a0,-1
    2f88:	40f2                	lw	ra,28(sp)
    2f8a:	4462                	lw	s0,24(sp)
    2f8c:	44d2                	lw	s1,20(sp)
    2f8e:	4942                	lw	s2,16(sp)
    2f90:	49b2                	lw	s3,12(sp)
    2f92:	4a22                	lw	s4,8(sp)
    2f94:	6105                	addi	sp,sp,32
    2f96:	8082                	ret
    2f98:	c41c                	sw	a5,8(s0)
    2f9a:	0905                	addi	s2,s2,1
    2f9c:	0007d763          	bgez	a5,2faa <_puts_r+0xae>
    2fa0:	4c18                	lw	a4,24(s0)
    2fa2:	00e7ca63          	blt	a5,a4,2fb6 <_puts_r+0xba>
    2fa6:	01458863          	beq	a1,s4,2fb6 <_puts_r+0xba>
    2faa:	401c                	lw	a5,0(s0)
    2fac:	00178713          	addi	a4,a5,1
    2fb0:	c018                	sw	a4,0(s0)
    2fb2:	a38c                	sb	a1,0(a5)
    2fb4:	b761                	j	2f3c <_puts_r+0x40>
    2fb6:	8622                	mv	a2,s0
    2fb8:	8526                	mv	a0,s1
    2fba:	200d                	jal	2fdc <__swbuf_r>
    2fbc:	f93510e3          	bne	a0,s3,2f3c <_puts_r+0x40>
    2fc0:	b7d9                	j	2f86 <_puts_r+0x8a>
    2fc2:	401c                	lw	a5,0(s0)
    2fc4:	00178713          	addi	a4,a5,1
    2fc8:	c018                	sw	a4,0(s0)
    2fca:	4729                	li	a4,10
    2fcc:	a398                	sb	a4,0(a5)
    2fce:	b771                	j	2f5a <_puts_r+0x5e>

00002fd0 <puts>:
    2fd0:	82818793          	addi	a5,gp,-2008 # 20000178 <_impure_ptr>
    2fd4:	85aa                	mv	a1,a0
    2fd6:	4388                	lw	a0,0(a5)
    2fd8:	f25ff06f          	j	2efc <_puts_r>

00002fdc <__swbuf_r>:
    2fdc:	1101                	addi	sp,sp,-32
    2fde:	cc22                	sw	s0,24(sp)
    2fe0:	ca26                	sw	s1,20(sp)
    2fe2:	c84a                	sw	s2,16(sp)
    2fe4:	ce06                	sw	ra,28(sp)
    2fe6:	c64e                	sw	s3,12(sp)
    2fe8:	84aa                	mv	s1,a0
    2fea:	892e                	mv	s2,a1
    2fec:	8432                	mv	s0,a2
    2fee:	c501                	beqz	a0,2ff6 <__swbuf_r+0x1a>
    2ff0:	4d1c                	lw	a5,24(a0)
    2ff2:	e391                	bnez	a5,2ff6 <__swbuf_r+0x1a>
    2ff4:	26f5                	jal	33e0 <__sinit>
    2ff6:	00001797          	auipc	a5,0x1
    2ffa:	21a78793          	addi	a5,a5,538 # 4210 <__sf_fake_stdin>
    2ffe:	06f41763          	bne	s0,a5,306c <__swbuf_r+0x90>
    3002:	40c0                	lw	s0,4(s1)
    3004:	4c1c                	lw	a5,24(s0)
    3006:	c41c                	sw	a5,8(s0)
    3008:	245e                	lhu	a5,12(s0)
    300a:	8ba1                	andi	a5,a5,8
    300c:	c3c1                	beqz	a5,308c <__swbuf_r+0xb0>
    300e:	481c                	lw	a5,16(s0)
    3010:	cfb5                	beqz	a5,308c <__swbuf_r+0xb0>
    3012:	481c                	lw	a5,16(s0)
    3014:	4008                	lw	a0,0(s0)
    3016:	0ff97993          	andi	s3,s2,255
    301a:	0ff97913          	andi	s2,s2,255
    301e:	8d1d                	sub	a0,a0,a5
    3020:	485c                	lw	a5,20(s0)
    3022:	00f54663          	blt	a0,a5,302e <__swbuf_r+0x52>
    3026:	85a2                	mv	a1,s0
    3028:	8526                	mv	a0,s1
    302a:	2c69                	jal	32c4 <_fflush_r>
    302c:	e525                	bnez	a0,3094 <__swbuf_r+0xb8>
    302e:	441c                	lw	a5,8(s0)
    3030:	0505                	addi	a0,a0,1
    3032:	17fd                	addi	a5,a5,-1
    3034:	c41c                	sw	a5,8(s0)
    3036:	401c                	lw	a5,0(s0)
    3038:	00178713          	addi	a4,a5,1
    303c:	c018                	sw	a4,0(s0)
    303e:	01378023          	sb	s3,0(a5)
    3042:	485c                	lw	a5,20(s0)
    3044:	00a78863          	beq	a5,a0,3054 <__swbuf_r+0x78>
    3048:	245e                	lhu	a5,12(s0)
    304a:	8b85                	andi	a5,a5,1
    304c:	cb81                	beqz	a5,305c <__swbuf_r+0x80>
    304e:	47a9                	li	a5,10
    3050:	00f91663          	bne	s2,a5,305c <__swbuf_r+0x80>
    3054:	85a2                	mv	a1,s0
    3056:	8526                	mv	a0,s1
    3058:	24b5                	jal	32c4 <_fflush_r>
    305a:	ed0d                	bnez	a0,3094 <__swbuf_r+0xb8>
    305c:	40f2                	lw	ra,28(sp)
    305e:	4462                	lw	s0,24(sp)
    3060:	854a                	mv	a0,s2
    3062:	44d2                	lw	s1,20(sp)
    3064:	4942                	lw	s2,16(sp)
    3066:	49b2                	lw	s3,12(sp)
    3068:	6105                	addi	sp,sp,32
    306a:	8082                	ret
    306c:	00001797          	auipc	a5,0x1
    3070:	1c478793          	addi	a5,a5,452 # 4230 <__sf_fake_stdout>
    3074:	00f41463          	bne	s0,a5,307c <__swbuf_r+0xa0>
    3078:	4480                	lw	s0,8(s1)
    307a:	b769                	j	3004 <__swbuf_r+0x28>
    307c:	00001797          	auipc	a5,0x1
    3080:	17478793          	addi	a5,a5,372 # 41f0 <__sf_fake_stderr>
    3084:	f8f410e3          	bne	s0,a5,3004 <__swbuf_r+0x28>
    3088:	44c0                	lw	s0,12(s1)
    308a:	bfad                	j	3004 <__swbuf_r+0x28>
    308c:	85a2                	mv	a1,s0
    308e:	8526                	mv	a0,s1
    3090:	2021                	jal	3098 <__swsetup_r>
    3092:	d141                	beqz	a0,3012 <__swbuf_r+0x36>
    3094:	597d                	li	s2,-1
    3096:	b7d9                	j	305c <__swbuf_r+0x80>

00003098 <__swsetup_r>:
    3098:	1141                	addi	sp,sp,-16
    309a:	82818793          	addi	a5,gp,-2008 # 20000178 <_impure_ptr>
    309e:	c226                	sw	s1,4(sp)
    30a0:	4384                	lw	s1,0(a5)
    30a2:	c422                	sw	s0,8(sp)
    30a4:	c04a                	sw	s2,0(sp)
    30a6:	c606                	sw	ra,12(sp)
    30a8:	892a                	mv	s2,a0
    30aa:	842e                	mv	s0,a1
    30ac:	c489                	beqz	s1,30b6 <__swsetup_r+0x1e>
    30ae:	4c9c                	lw	a5,24(s1)
    30b0:	e399                	bnez	a5,30b6 <__swsetup_r+0x1e>
    30b2:	8526                	mv	a0,s1
    30b4:	2635                	jal	33e0 <__sinit>
    30b6:	00001797          	auipc	a5,0x1
    30ba:	15a78793          	addi	a5,a5,346 # 4210 <__sf_fake_stdin>
    30be:	02f41b63          	bne	s0,a5,30f4 <__swsetup_r+0x5c>
    30c2:	40c0                	lw	s0,4(s1)
    30c4:	00c41703          	lh	a4,12(s0)
    30c8:	01071793          	slli	a5,a4,0x10
    30cc:	83c1                	srli	a5,a5,0x10
    30ce:	0087f693          	andi	a3,a5,8
    30d2:	eaad                	bnez	a3,3144 <__swsetup_r+0xac>
    30d4:	0107f693          	andi	a3,a5,16
    30d8:	ee95                	bnez	a3,3114 <__swsetup_r+0x7c>
    30da:	47a5                	li	a5,9
    30dc:	00f92023          	sw	a5,0(s2)
    30e0:	04076713          	ori	a4,a4,64
    30e4:	a45a                	sh	a4,12(s0)
    30e6:	557d                	li	a0,-1
    30e8:	40b2                	lw	ra,12(sp)
    30ea:	4422                	lw	s0,8(sp)
    30ec:	4492                	lw	s1,4(sp)
    30ee:	4902                	lw	s2,0(sp)
    30f0:	0141                	addi	sp,sp,16
    30f2:	8082                	ret
    30f4:	00001797          	auipc	a5,0x1
    30f8:	13c78793          	addi	a5,a5,316 # 4230 <__sf_fake_stdout>
    30fc:	00f41463          	bne	s0,a5,3104 <__swsetup_r+0x6c>
    3100:	4480                	lw	s0,8(s1)
    3102:	b7c9                	j	30c4 <__swsetup_r+0x2c>
    3104:	00001797          	auipc	a5,0x1
    3108:	0ec78793          	addi	a5,a5,236 # 41f0 <__sf_fake_stderr>
    310c:	faf41ce3          	bne	s0,a5,30c4 <__swsetup_r+0x2c>
    3110:	44c0                	lw	s0,12(s1)
    3112:	bf4d                	j	30c4 <__swsetup_r+0x2c>
    3114:	8b91                	andi	a5,a5,4
    3116:	c39d                	beqz	a5,313c <__swsetup_r+0xa4>
    3118:	584c                	lw	a1,52(s0)
    311a:	c989                	beqz	a1,312c <__swsetup_r+0x94>
    311c:	04440793          	addi	a5,s0,68
    3120:	00f58463          	beq	a1,a5,3128 <__swsetup_r+0x90>
    3124:	854a                	mv	a0,s2
    3126:	2b29                	jal	3640 <_free_r>
    3128:	02042a23          	sw	zero,52(s0)
    312c:	245e                	lhu	a5,12(s0)
    312e:	00042223          	sw	zero,4(s0)
    3132:	fdb7f793          	andi	a5,a5,-37
    3136:	a45e                	sh	a5,12(s0)
    3138:	481c                	lw	a5,16(s0)
    313a:	c01c                	sw	a5,0(s0)
    313c:	245e                	lhu	a5,12(s0)
    313e:	0087e793          	ori	a5,a5,8
    3142:	a45e                	sh	a5,12(s0)
    3144:	481c                	lw	a5,16(s0)
    3146:	eb99                	bnez	a5,315c <__swsetup_r+0xc4>
    3148:	245e                	lhu	a5,12(s0)
    314a:	20000713          	li	a4,512
    314e:	2807f793          	andi	a5,a5,640
    3152:	00e78563          	beq	a5,a4,315c <__swsetup_r+0xc4>
    3156:	85a2                	mv	a1,s0
    3158:	854a                	mv	a0,s2
    315a:	2991                	jal	35ae <__smakebuf_r>
    315c:	245e                	lhu	a5,12(s0)
    315e:	0017f713          	andi	a4,a5,1
    3162:	c31d                	beqz	a4,3188 <__swsetup_r+0xf0>
    3164:	485c                	lw	a5,20(s0)
    3166:	00042423          	sw	zero,8(s0)
    316a:	40f007b3          	neg	a5,a5
    316e:	cc1c                	sw	a5,24(s0)
    3170:	481c                	lw	a5,16(s0)
    3172:	4501                	li	a0,0
    3174:	fbb5                	bnez	a5,30e8 <__swsetup_r+0x50>
    3176:	00c41783          	lh	a5,12(s0)
    317a:	0807f713          	andi	a4,a5,128
    317e:	d72d                	beqz	a4,30e8 <__swsetup_r+0x50>
    3180:	0407e793          	ori	a5,a5,64
    3184:	a45e                	sh	a5,12(s0)
    3186:	b785                	j	30e6 <__swsetup_r+0x4e>
    3188:	8b89                	andi	a5,a5,2
    318a:	4701                	li	a4,0
    318c:	e391                	bnez	a5,3190 <__swsetup_r+0xf8>
    318e:	4858                	lw	a4,20(s0)
    3190:	c418                	sw	a4,8(s0)
    3192:	bff9                	j	3170 <__swsetup_r+0xd8>

00003194 <__sflush_r>:
    3194:	25de                	lhu	a5,12(a1)
    3196:	1101                	addi	sp,sp,-32
    3198:	cc22                	sw	s0,24(sp)
    319a:	ca26                	sw	s1,20(sp)
    319c:	ce06                	sw	ra,28(sp)
    319e:	c84a                	sw	s2,16(sp)
    31a0:	c64e                	sw	s3,12(sp)
    31a2:	0087f713          	andi	a4,a5,8
    31a6:	84aa                	mv	s1,a0
    31a8:	842e                	mv	s0,a1
    31aa:	eb79                	bnez	a4,3280 <__sflush_r+0xec>
    31ac:	41d8                	lw	a4,4(a1)
    31ae:	00e04d63          	bgtz	a4,31c8 <__sflush_r+0x34>
    31b2:	41b8                	lw	a4,64(a1)
    31b4:	00e04a63          	bgtz	a4,31c8 <__sflush_r+0x34>
    31b8:	4501                	li	a0,0
    31ba:	40f2                	lw	ra,28(sp)
    31bc:	4462                	lw	s0,24(sp)
    31be:	44d2                	lw	s1,20(sp)
    31c0:	4942                	lw	s2,16(sp)
    31c2:	49b2                	lw	s3,12(sp)
    31c4:	6105                	addi	sp,sp,32
    31c6:	8082                	ret
    31c8:	5458                	lw	a4,44(s0)
    31ca:	d77d                	beqz	a4,31b8 <__sflush_r+0x24>
    31cc:	0004a903          	lw	s2,0(s1)
    31d0:	01379693          	slli	a3,a5,0x13
    31d4:	0004a023          	sw	zero,0(s1)
    31d8:	0606db63          	bgez	a3,324e <__sflush_r+0xba>
    31dc:	4870                	lw	a2,84(s0)
    31de:	245e                	lhu	a5,12(s0)
    31e0:	8b91                	andi	a5,a5,4
    31e2:	c799                	beqz	a5,31f0 <__sflush_r+0x5c>
    31e4:	405c                	lw	a5,4(s0)
    31e6:	8e1d                	sub	a2,a2,a5
    31e8:	585c                	lw	a5,52(s0)
    31ea:	c399                	beqz	a5,31f0 <__sflush_r+0x5c>
    31ec:	403c                	lw	a5,64(s0)
    31ee:	8e1d                	sub	a2,a2,a5
    31f0:	545c                	lw	a5,44(s0)
    31f2:	500c                	lw	a1,32(s0)
    31f4:	4681                	li	a3,0
    31f6:	8526                	mv	a0,s1
    31f8:	9782                	jalr	a5
    31fa:	57fd                	li	a5,-1
    31fc:	245a                	lhu	a4,12(s0)
    31fe:	00f51d63          	bne	a0,a5,3218 <__sflush_r+0x84>
    3202:	4094                	lw	a3,0(s1)
    3204:	47f5                	li	a5,29
    3206:	06d7e863          	bltu	a5,a3,3276 <__sflush_r+0xe2>
    320a:	204007b7          	lui	a5,0x20400
    320e:	0785                	addi	a5,a5,1
    3210:	00d7d7b3          	srl	a5,a5,a3
    3214:	8b85                	andi	a5,a5,1
    3216:	c3a5                	beqz	a5,3276 <__sflush_r+0xe2>
    3218:	481c                	lw	a5,16(s0)
    321a:	00042223          	sw	zero,4(s0)
    321e:	c01c                	sw	a5,0(s0)
    3220:	01371793          	slli	a5,a4,0x13
    3224:	0007d863          	bgez	a5,3234 <__sflush_r+0xa0>
    3228:	57fd                	li	a5,-1
    322a:	00f51463          	bne	a0,a5,3232 <__sflush_r+0x9e>
    322e:	409c                	lw	a5,0(s1)
    3230:	e391                	bnez	a5,3234 <__sflush_r+0xa0>
    3232:	c868                	sw	a0,84(s0)
    3234:	584c                	lw	a1,52(s0)
    3236:	0124a023          	sw	s2,0(s1)
    323a:	ddbd                	beqz	a1,31b8 <__sflush_r+0x24>
    323c:	04440793          	addi	a5,s0,68
    3240:	00f58463          	beq	a1,a5,3248 <__sflush_r+0xb4>
    3244:	8526                	mv	a0,s1
    3246:	2eed                	jal	3640 <_free_r>
    3248:	02042a23          	sw	zero,52(s0)
    324c:	b7b5                	j	31b8 <__sflush_r+0x24>
    324e:	500c                	lw	a1,32(s0)
    3250:	4601                	li	a2,0
    3252:	4685                	li	a3,1
    3254:	8526                	mv	a0,s1
    3256:	9702                	jalr	a4
    3258:	57fd                	li	a5,-1
    325a:	862a                	mv	a2,a0
    325c:	f8f511e3          	bne	a0,a5,31de <__sflush_r+0x4a>
    3260:	409c                	lw	a5,0(s1)
    3262:	dfb5                	beqz	a5,31de <__sflush_r+0x4a>
    3264:	4775                	li	a4,29
    3266:	00e78563          	beq	a5,a4,3270 <__sflush_r+0xdc>
    326a:	4759                	li	a4,22
    326c:	04e79363          	bne	a5,a4,32b2 <__sflush_r+0x11e>
    3270:	0124a023          	sw	s2,0(s1)
    3274:	b791                	j	31b8 <__sflush_r+0x24>
    3276:	04076713          	ori	a4,a4,64
    327a:	a45a                	sh	a4,12(s0)
    327c:	557d                	li	a0,-1
    327e:	bf35                	j	31ba <__sflush_r+0x26>
    3280:	0105a983          	lw	s3,16(a1)
    3284:	f2098ae3          	beqz	s3,31b8 <__sflush_r+0x24>
    3288:	0005a903          	lw	s2,0(a1)
    328c:	8b8d                	andi	a5,a5,3
    328e:	0135a023          	sw	s3,0(a1)
    3292:	41390933          	sub	s2,s2,s3
    3296:	4701                	li	a4,0
    3298:	e391                	bnez	a5,329c <__sflush_r+0x108>
    329a:	49d8                	lw	a4,20(a1)
    329c:	c418                	sw	a4,8(s0)
    329e:	f1205de3          	blez	s2,31b8 <__sflush_r+0x24>
    32a2:	541c                	lw	a5,40(s0)
    32a4:	500c                	lw	a1,32(s0)
    32a6:	86ca                	mv	a3,s2
    32a8:	864e                	mv	a2,s3
    32aa:	8526                	mv	a0,s1
    32ac:	9782                	jalr	a5
    32ae:	00a04763          	bgtz	a0,32bc <__sflush_r+0x128>
    32b2:	245e                	lhu	a5,12(s0)
    32b4:	0407e793          	ori	a5,a5,64
    32b8:	a45e                	sh	a5,12(s0)
    32ba:	b7c9                	j	327c <__sflush_r+0xe8>
    32bc:	99aa                	add	s3,s3,a0
    32be:	40a90933          	sub	s2,s2,a0
    32c2:	bff1                	j	329e <__sflush_r+0x10a>

000032c4 <_fflush_r>:
    32c4:	499c                	lw	a5,16(a1)
    32c6:	c3a5                	beqz	a5,3326 <_fflush_r+0x62>
    32c8:	1101                	addi	sp,sp,-32
    32ca:	cc22                	sw	s0,24(sp)
    32cc:	ce06                	sw	ra,28(sp)
    32ce:	842a                	mv	s0,a0
    32d0:	c511                	beqz	a0,32dc <_fflush_r+0x18>
    32d2:	4d1c                	lw	a5,24(a0)
    32d4:	e781                	bnez	a5,32dc <_fflush_r+0x18>
    32d6:	c62e                	sw	a1,12(sp)
    32d8:	2221                	jal	33e0 <__sinit>
    32da:	45b2                	lw	a1,12(sp)
    32dc:	00001797          	auipc	a5,0x1
    32e0:	f3478793          	addi	a5,a5,-204 # 4210 <__sf_fake_stdin>
    32e4:	00f59c63          	bne	a1,a5,32fc <_fflush_r+0x38>
    32e8:	404c                	lw	a1,4(s0)
    32ea:	00c59783          	lh	a5,12(a1)
    32ee:	c79d                	beqz	a5,331c <_fflush_r+0x58>
    32f0:	8522                	mv	a0,s0
    32f2:	4462                	lw	s0,24(sp)
    32f4:	40f2                	lw	ra,28(sp)
    32f6:	6105                	addi	sp,sp,32
    32f8:	e9dff06f          	j	3194 <__sflush_r>
    32fc:	00001797          	auipc	a5,0x1
    3300:	f3478793          	addi	a5,a5,-204 # 4230 <__sf_fake_stdout>
    3304:	00f59463          	bne	a1,a5,330c <_fflush_r+0x48>
    3308:	440c                	lw	a1,8(s0)
    330a:	b7c5                	j	32ea <_fflush_r+0x26>
    330c:	00001797          	auipc	a5,0x1
    3310:	ee478793          	addi	a5,a5,-284 # 41f0 <__sf_fake_stderr>
    3314:	fcf59be3          	bne	a1,a5,32ea <_fflush_r+0x26>
    3318:	444c                	lw	a1,12(s0)
    331a:	bfc1                	j	32ea <_fflush_r+0x26>
    331c:	40f2                	lw	ra,28(sp)
    331e:	4462                	lw	s0,24(sp)
    3320:	4501                	li	a0,0
    3322:	6105                	addi	sp,sp,32
    3324:	8082                	ret
    3326:	4501                	li	a0,0
    3328:	8082                	ret

0000332a <std>:
    332a:	1141                	addi	sp,sp,-16
    332c:	c422                	sw	s0,8(sp)
    332e:	c606                	sw	ra,12(sp)
    3330:	842a                	mv	s0,a0
    3332:	a54e                	sh	a1,12(a0)
    3334:	a572                	sh	a2,14(a0)
    3336:	00052023          	sw	zero,0(a0)
    333a:	00052223          	sw	zero,4(a0)
    333e:	00052423          	sw	zero,8(a0)
    3342:	06052223          	sw	zero,100(a0)
    3346:	00052823          	sw	zero,16(a0)
    334a:	00052a23          	sw	zero,20(a0)
    334e:	00052c23          	sw	zero,24(a0)
    3352:	4621                	li	a2,8
    3354:	4581                	li	a1,0
    3356:	05c50513          	addi	a0,a0,92
    335a:	e07fc0ef          	jal	ra,160 <memset>
    335e:	00001797          	auipc	a5,0x1
    3362:	b2878793          	addi	a5,a5,-1240 # 3e86 <__sread>
    3366:	d05c                	sw	a5,36(s0)
    3368:	00001797          	auipc	a5,0x1
    336c:	b4a78793          	addi	a5,a5,-1206 # 3eb2 <__swrite>
    3370:	d41c                	sw	a5,40(s0)
    3372:	00001797          	auipc	a5,0x1
    3376:	b8878793          	addi	a5,a5,-1144 # 3efa <__sseek>
    337a:	d45c                	sw	a5,44(s0)
    337c:	00001797          	auipc	a5,0x1
    3380:	bae78793          	addi	a5,a5,-1106 # 3f2a <__sclose>
    3384:	d000                	sw	s0,32(s0)
    3386:	d81c                	sw	a5,48(s0)
    3388:	40b2                	lw	ra,12(sp)
    338a:	4422                	lw	s0,8(sp)
    338c:	0141                	addi	sp,sp,16
    338e:	8082                	ret

00003390 <_cleanup_r>:
    3390:	00000597          	auipc	a1,0x0
    3394:	f3458593          	addi	a1,a1,-204 # 32c4 <_fflush_r>
    3398:	aa91                	j	34ec <_fwalk_reent>

0000339a <__sfmoreglue>:
    339a:	1141                	addi	sp,sp,-16
    339c:	c226                	sw	s1,4(sp)
    339e:	06800613          	li	a2,104
    33a2:	fff58493          	addi	s1,a1,-1
    33a6:	02c484b3          	mul	s1,s1,a2
    33aa:	c04a                	sw	s2,0(sp)
    33ac:	892e                	mv	s2,a1
    33ae:	c422                	sw	s0,8(sp)
    33b0:	c606                	sw	ra,12(sp)
    33b2:	07448593          	addi	a1,s1,116
    33b6:	2e0d                	jal	36e8 <_malloc_r>
    33b8:	842a                	mv	s0,a0
    33ba:	cd01                	beqz	a0,33d2 <__sfmoreglue+0x38>
    33bc:	00052023          	sw	zero,0(a0)
    33c0:	01252223          	sw	s2,4(a0)
    33c4:	0531                	addi	a0,a0,12
    33c6:	c408                	sw	a0,8(s0)
    33c8:	06848613          	addi	a2,s1,104
    33cc:	4581                	li	a1,0
    33ce:	d93fc0ef          	jal	ra,160 <memset>
    33d2:	8522                	mv	a0,s0
    33d4:	40b2                	lw	ra,12(sp)
    33d6:	4422                	lw	s0,8(sp)
    33d8:	4492                	lw	s1,4(sp)
    33da:	4902                	lw	s2,0(sp)
    33dc:	0141                	addi	sp,sp,16
    33de:	8082                	ret

000033e0 <__sinit>:
    33e0:	4d1c                	lw	a5,24(a0)
    33e2:	e7a5                	bnez	a5,344a <__sinit+0x6a>
    33e4:	1141                	addi	sp,sp,-16
    33e6:	c606                	sw	ra,12(sp)
    33e8:	c422                	sw	s0,8(sp)
    33ea:	00000797          	auipc	a5,0x0
    33ee:	fa678793          	addi	a5,a5,-90 # 3390 <_cleanup_r>
    33f2:	d51c                	sw	a5,40(a0)
    33f4:	83818793          	addi	a5,gp,-1992 # 20000188 <_global_impure_ptr>
    33f8:	439c                	lw	a5,0(a5)
    33fa:	04052423          	sw	zero,72(a0)
    33fe:	04052623          	sw	zero,76(a0)
    3402:	04052823          	sw	zero,80(a0)
    3406:	00f51463          	bne	a0,a5,340e <__sinit+0x2e>
    340a:	4785                	li	a5,1
    340c:	cd1c                	sw	a5,24(a0)
    340e:	842a                	mv	s0,a0
    3410:	2835                	jal	344c <__sfp>
    3412:	c048                	sw	a0,4(s0)
    3414:	8522                	mv	a0,s0
    3416:	281d                	jal	344c <__sfp>
    3418:	c408                	sw	a0,8(s0)
    341a:	8522                	mv	a0,s0
    341c:	2805                	jal	344c <__sfp>
    341e:	c448                	sw	a0,12(s0)
    3420:	4048                	lw	a0,4(s0)
    3422:	4601                	li	a2,0
    3424:	4591                	li	a1,4
    3426:	f05ff0ef          	jal	ra,332a <std>
    342a:	4408                	lw	a0,8(s0)
    342c:	4605                	li	a2,1
    342e:	45a5                	li	a1,9
    3430:	efbff0ef          	jal	ra,332a <std>
    3434:	4448                	lw	a0,12(s0)
    3436:	4609                	li	a2,2
    3438:	45c9                	li	a1,18
    343a:	ef1ff0ef          	jal	ra,332a <std>
    343e:	4785                	li	a5,1
    3440:	cc1c                	sw	a5,24(s0)
    3442:	40b2                	lw	ra,12(sp)
    3444:	4422                	lw	s0,8(sp)
    3446:	0141                	addi	sp,sp,16
    3448:	8082                	ret
    344a:	8082                	ret

0000344c <__sfp>:
    344c:	1141                	addi	sp,sp,-16
    344e:	83818793          	addi	a5,gp,-1992 # 20000188 <_global_impure_ptr>
    3452:	c226                	sw	s1,4(sp)
    3454:	4384                	lw	s1,0(a5)
    3456:	c04a                	sw	s2,0(sp)
    3458:	c606                	sw	ra,12(sp)
    345a:	4c9c                	lw	a5,24(s1)
    345c:	c422                	sw	s0,8(sp)
    345e:	892a                	mv	s2,a0
    3460:	e781                	bnez	a5,3468 <__sfp+0x1c>
    3462:	8526                	mv	a0,s1
    3464:	f7dff0ef          	jal	ra,33e0 <__sinit>
    3468:	04848493          	addi	s1,s1,72
    346c:	4480                	lw	s0,8(s1)
    346e:	40dc                	lw	a5,4(s1)
    3470:	17fd                	addi	a5,a5,-1
    3472:	0007d663          	bgez	a5,347e <__sfp+0x32>
    3476:	409c                	lw	a5,0(s1)
    3478:	cfb9                	beqz	a5,34d6 <__sfp+0x8a>
    347a:	4084                	lw	s1,0(s1)
    347c:	bfc5                	j	346c <__sfp+0x20>
    347e:	00c41703          	lh	a4,12(s0)
    3482:	e739                	bnez	a4,34d0 <__sfp+0x84>
    3484:	77c1                	lui	a5,0xffff0
    3486:	0785                	addi	a5,a5,1
    3488:	06042223          	sw	zero,100(s0)
    348c:	00042023          	sw	zero,0(s0)
    3490:	00042223          	sw	zero,4(s0)
    3494:	00042423          	sw	zero,8(s0)
    3498:	c45c                	sw	a5,12(s0)
    349a:	00042823          	sw	zero,16(s0)
    349e:	00042a23          	sw	zero,20(s0)
    34a2:	00042c23          	sw	zero,24(s0)
    34a6:	4621                	li	a2,8
    34a8:	4581                	li	a1,0
    34aa:	05c40513          	addi	a0,s0,92
    34ae:	cb3fc0ef          	jal	ra,160 <memset>
    34b2:	02042a23          	sw	zero,52(s0)
    34b6:	02042c23          	sw	zero,56(s0)
    34ba:	04042423          	sw	zero,72(s0)
    34be:	04042623          	sw	zero,76(s0)
    34c2:	8522                	mv	a0,s0
    34c4:	40b2                	lw	ra,12(sp)
    34c6:	4422                	lw	s0,8(sp)
    34c8:	4492                	lw	s1,4(sp)
    34ca:	4902                	lw	s2,0(sp)
    34cc:	0141                	addi	sp,sp,16
    34ce:	8082                	ret
    34d0:	06840413          	addi	s0,s0,104
    34d4:	bf71                	j	3470 <__sfp+0x24>
    34d6:	4591                	li	a1,4
    34d8:	854a                	mv	a0,s2
    34da:	ec1ff0ef          	jal	ra,339a <__sfmoreglue>
    34de:	c088                	sw	a0,0(s1)
    34e0:	fd49                	bnez	a0,347a <__sfp+0x2e>
    34e2:	47b1                	li	a5,12
    34e4:	00f92023          	sw	a5,0(s2)
    34e8:	4401                	li	s0,0
    34ea:	bfe1                	j	34c2 <__sfp+0x76>

000034ec <_fwalk_reent>:
    34ec:	7179                	addi	sp,sp,-48
    34ee:	d422                	sw	s0,40(sp)
    34f0:	d04a                	sw	s2,32(sp)
    34f2:	cc52                	sw	s4,24(sp)
    34f4:	ca56                	sw	s5,20(sp)
    34f6:	c85a                	sw	s6,16(sp)
    34f8:	c65e                	sw	s7,12(sp)
    34fa:	d606                	sw	ra,44(sp)
    34fc:	d226                	sw	s1,36(sp)
    34fe:	ce4e                	sw	s3,28(sp)
    3500:	8a2a                	mv	s4,a0
    3502:	8aae                	mv	s5,a1
    3504:	04850413          	addi	s0,a0,72
    3508:	4901                	li	s2,0
    350a:	4b05                	li	s6,1
    350c:	5bfd                	li	s7,-1
    350e:	ec09                	bnez	s0,3528 <_fwalk_reent+0x3c>
    3510:	50b2                	lw	ra,44(sp)
    3512:	5422                	lw	s0,40(sp)
    3514:	854a                	mv	a0,s2
    3516:	5492                	lw	s1,36(sp)
    3518:	5902                	lw	s2,32(sp)
    351a:	49f2                	lw	s3,28(sp)
    351c:	4a62                	lw	s4,24(sp)
    351e:	4ad2                	lw	s5,20(sp)
    3520:	4b42                	lw	s6,16(sp)
    3522:	4bb2                	lw	s7,12(sp)
    3524:	6145                	addi	sp,sp,48
    3526:	8082                	ret
    3528:	4404                	lw	s1,8(s0)
    352a:	00442983          	lw	s3,4(s0)
    352e:	19fd                	addi	s3,s3,-1
    3530:	0009d463          	bgez	s3,3538 <_fwalk_reent+0x4c>
    3534:	4000                	lw	s0,0(s0)
    3536:	bfe1                	j	350e <_fwalk_reent+0x22>
    3538:	24de                	lhu	a5,12(s1)
    353a:	00fb7b63          	bgeu	s6,a5,3550 <_fwalk_reent+0x64>
    353e:	00e49783          	lh	a5,14(s1)
    3542:	01778763          	beq	a5,s7,3550 <_fwalk_reent+0x64>
    3546:	85a6                	mv	a1,s1
    3548:	8552                	mv	a0,s4
    354a:	9a82                	jalr	s5
    354c:	00a96933          	or	s2,s2,a0
    3550:	06848493          	addi	s1,s1,104
    3554:	bfe9                	j	352e <_fwalk_reent+0x42>

00003556 <__swhatbuf_r>:
    3556:	7119                	addi	sp,sp,-128
    3558:	daa6                	sw	s1,116(sp)
    355a:	84ae                	mv	s1,a1
    355c:	00e59583          	lh	a1,14(a1)
    3560:	dca2                	sw	s0,120(sp)
    3562:	de86                	sw	ra,124(sp)
    3564:	8432                	mv	s0,a2
    3566:	0005db63          	bgez	a1,357c <__swhatbuf_r+0x26>
    356a:	24de                	lhu	a5,12(s1)
    356c:	0006a023          	sw	zero,0(a3)
    3570:	0807f793          	andi	a5,a5,128
    3574:	e785                	bnez	a5,359c <__swhatbuf_r+0x46>
    3576:	40000793          	li	a5,1024
    357a:	a01d                	j	35a0 <__swhatbuf_r+0x4a>
    357c:	0830                	addi	a2,sp,24
    357e:	c636                	sw	a3,12(sp)
    3580:	207000ef          	jal	ra,3f86 <_fstat_r>
    3584:	46b2                	lw	a3,12(sp)
    3586:	fe0542e3          	bltz	a0,356a <__swhatbuf_r+0x14>
    358a:	4772                	lw	a4,28(sp)
    358c:	67bd                	lui	a5,0xf
    358e:	8ff9                	and	a5,a5,a4
    3590:	7779                	lui	a4,0xffffe
    3592:	97ba                	add	a5,a5,a4
    3594:	0017b793          	seqz	a5,a5
    3598:	c29c                	sw	a5,0(a3)
    359a:	bff1                	j	3576 <__swhatbuf_r+0x20>
    359c:	04000793          	li	a5,64
    35a0:	c01c                	sw	a5,0(s0)
    35a2:	50f6                	lw	ra,124(sp)
    35a4:	5466                	lw	s0,120(sp)
    35a6:	54d6                	lw	s1,116(sp)
    35a8:	4501                	li	a0,0
    35aa:	6109                	addi	sp,sp,128
    35ac:	8082                	ret

000035ae <__smakebuf_r>:
    35ae:	25de                	lhu	a5,12(a1)
    35b0:	1101                	addi	sp,sp,-32
    35b2:	cc22                	sw	s0,24(sp)
    35b4:	ce06                	sw	ra,28(sp)
    35b6:	ca26                	sw	s1,20(sp)
    35b8:	c84a                	sw	s2,16(sp)
    35ba:	8b89                	andi	a5,a5,2
    35bc:	842e                	mv	s0,a1
    35be:	cf89                	beqz	a5,35d8 <__smakebuf_r+0x2a>
    35c0:	04740793          	addi	a5,s0,71
    35c4:	c01c                	sw	a5,0(s0)
    35c6:	c81c                	sw	a5,16(s0)
    35c8:	4785                	li	a5,1
    35ca:	c85c                	sw	a5,20(s0)
    35cc:	40f2                	lw	ra,28(sp)
    35ce:	4462                	lw	s0,24(sp)
    35d0:	44d2                	lw	s1,20(sp)
    35d2:	4942                	lw	s2,16(sp)
    35d4:	6105                	addi	sp,sp,32
    35d6:	8082                	ret
    35d8:	0074                	addi	a3,sp,12
    35da:	0030                	addi	a2,sp,8
    35dc:	84aa                	mv	s1,a0
    35de:	f79ff0ef          	jal	ra,3556 <__swhatbuf_r>
    35e2:	45a2                	lw	a1,8(sp)
    35e4:	892a                	mv	s2,a0
    35e6:	8526                	mv	a0,s1
    35e8:	2201                	jal	36e8 <_malloc_r>
    35ea:	e919                	bnez	a0,3600 <__smakebuf_r+0x52>
    35ec:	00c41783          	lh	a5,12(s0)
    35f0:	2007f713          	andi	a4,a5,512
    35f4:	ff61                	bnez	a4,35cc <__smakebuf_r+0x1e>
    35f6:	9bf1                	andi	a5,a5,-4
    35f8:	0027e793          	ori	a5,a5,2
    35fc:	a45e                	sh	a5,12(s0)
    35fe:	b7c9                	j	35c0 <__smakebuf_r+0x12>
    3600:	00000797          	auipc	a5,0x0
    3604:	d9078793          	addi	a5,a5,-624 # 3390 <_cleanup_r>
    3608:	d49c                	sw	a5,40(s1)
    360a:	245e                	lhu	a5,12(s0)
    360c:	c008                	sw	a0,0(s0)
    360e:	c808                	sw	a0,16(s0)
    3610:	0807e793          	ori	a5,a5,128
    3614:	a45e                	sh	a5,12(s0)
    3616:	47a2                	lw	a5,8(sp)
    3618:	c85c                	sw	a5,20(s0)
    361a:	47b2                	lw	a5,12(sp)
    361c:	cf81                	beqz	a5,3634 <__smakebuf_r+0x86>
    361e:	00e41583          	lh	a1,14(s0)
    3622:	8526                	mv	a0,s1
    3624:	18d000ef          	jal	ra,3fb0 <_isatty_r>
    3628:	c511                	beqz	a0,3634 <__smakebuf_r+0x86>
    362a:	245e                	lhu	a5,12(s0)
    362c:	9bf1                	andi	a5,a5,-4
    362e:	0017e793          	ori	a5,a5,1
    3632:	a45e                	sh	a5,12(s0)
    3634:	245e                	lhu	a5,12(s0)
    3636:	00f96933          	or	s2,s2,a5
    363a:	01241623          	sh	s2,12(s0)
    363e:	b779                	j	35cc <__smakebuf_r+0x1e>

00003640 <_free_r>:
    3640:	c1dd                	beqz	a1,36e6 <_free_r+0xa6>
    3642:	ffc5a783          	lw	a5,-4(a1)
    3646:	1141                	addi	sp,sp,-16
    3648:	c422                	sw	s0,8(sp)
    364a:	c606                	sw	ra,12(sp)
    364c:	c226                	sw	s1,4(sp)
    364e:	ffc58413          	addi	s0,a1,-4
    3652:	0007d363          	bgez	a5,3658 <_free_r+0x18>
    3656:	943e                	add	s0,s0,a5
    3658:	84aa                	mv	s1,a0
    365a:	1c3000ef          	jal	ra,401c <__malloc_lock>
    365e:	8b018793          	addi	a5,gp,-1872 # 20000200 <__malloc_free_list>
    3662:	439c                	lw	a5,0(a5)
    3664:	ef81                	bnez	a5,367c <_free_r+0x3c>
    3666:	00042223          	sw	zero,4(s0)
    366a:	8a81a823          	sw	s0,-1872(gp) # 20000200 <__malloc_free_list>
    366e:	4422                	lw	s0,8(sp)
    3670:	40b2                	lw	ra,12(sp)
    3672:	8526                	mv	a0,s1
    3674:	4492                	lw	s1,4(sp)
    3676:	0141                	addi	sp,sp,16
    3678:	1a70006f          	j	401e <__malloc_unlock>
    367c:	00f47e63          	bgeu	s0,a5,3698 <_free_r+0x58>
    3680:	4014                	lw	a3,0(s0)
    3682:	00d40733          	add	a4,s0,a3
    3686:	00e79663          	bne	a5,a4,3692 <_free_r+0x52>
    368a:	4398                	lw	a4,0(a5)
    368c:	43dc                	lw	a5,4(a5)
    368e:	9736                	add	a4,a4,a3
    3690:	c018                	sw	a4,0(s0)
    3692:	c05c                	sw	a5,4(s0)
    3694:	bfd9                	j	366a <_free_r+0x2a>
    3696:	87ba                	mv	a5,a4
    3698:	43d8                	lw	a4,4(a5)
    369a:	c319                	beqz	a4,36a0 <_free_r+0x60>
    369c:	fee47de3          	bgeu	s0,a4,3696 <_free_r+0x56>
    36a0:	4394                	lw	a3,0(a5)
    36a2:	00d78633          	add	a2,a5,a3
    36a6:	00861f63          	bne	a2,s0,36c4 <_free_r+0x84>
    36aa:	4010                	lw	a2,0(s0)
    36ac:	96b2                	add	a3,a3,a2
    36ae:	c394                	sw	a3,0(a5)
    36b0:	00d78633          	add	a2,a5,a3
    36b4:	fac71de3          	bne	a4,a2,366e <_free_r+0x2e>
    36b8:	4310                	lw	a2,0(a4)
    36ba:	4358                	lw	a4,4(a4)
    36bc:	96b2                	add	a3,a3,a2
    36be:	c394                	sw	a3,0(a5)
    36c0:	c3d8                	sw	a4,4(a5)
    36c2:	b775                	j	366e <_free_r+0x2e>
    36c4:	00c47563          	bgeu	s0,a2,36ce <_free_r+0x8e>
    36c8:	47b1                	li	a5,12
    36ca:	c09c                	sw	a5,0(s1)
    36cc:	b74d                	j	366e <_free_r+0x2e>
    36ce:	4010                	lw	a2,0(s0)
    36d0:	00c406b3          	add	a3,s0,a2
    36d4:	00d71663          	bne	a4,a3,36e0 <_free_r+0xa0>
    36d8:	4314                	lw	a3,0(a4)
    36da:	4358                	lw	a4,4(a4)
    36dc:	96b2                	add	a3,a3,a2
    36de:	c014                	sw	a3,0(s0)
    36e0:	c058                	sw	a4,4(s0)
    36e2:	c3c0                	sw	s0,4(a5)
    36e4:	b769                	j	366e <_free_r+0x2e>
    36e6:	8082                	ret

000036e8 <_malloc_r>:
    36e8:	1101                	addi	sp,sp,-32
    36ea:	ca26                	sw	s1,20(sp)
    36ec:	00358493          	addi	s1,a1,3
    36f0:	98f1                	andi	s1,s1,-4
    36f2:	ce06                	sw	ra,28(sp)
    36f4:	cc22                	sw	s0,24(sp)
    36f6:	c84a                	sw	s2,16(sp)
    36f8:	c64e                	sw	s3,12(sp)
    36fa:	04a1                	addi	s1,s1,8
    36fc:	47b1                	li	a5,12
    36fe:	04f4f363          	bgeu	s1,a5,3744 <_malloc_r+0x5c>
    3702:	44b1                	li	s1,12
    3704:	04b4e263          	bltu	s1,a1,3748 <_malloc_r+0x60>
    3708:	892a                	mv	s2,a0
    370a:	113000ef          	jal	ra,401c <__malloc_lock>
    370e:	8b018793          	addi	a5,gp,-1872 # 20000200 <__malloc_free_list>
    3712:	4398                	lw	a4,0(a5)
    3714:	843a                	mv	s0,a4
    3716:	e039                	bnez	s0,375c <_malloc_r+0x74>
    3718:	8b418793          	addi	a5,gp,-1868 # 20000204 <__malloc_sbrk_start>
    371c:	439c                	lw	a5,0(a5)
    371e:	e791                	bnez	a5,372a <_malloc_r+0x42>
    3720:	4581                	li	a1,0
    3722:	854a                	mv	a0,s2
    3724:	2f25                	jal	3e5c <_sbrk_r>
    3726:	8aa1aa23          	sw	a0,-1868(gp) # 20000204 <__malloc_sbrk_start>
    372a:	85a6                	mv	a1,s1
    372c:	854a                	mv	a0,s2
    372e:	273d                	jal	3e5c <_sbrk_r>
    3730:	59fd                	li	s3,-1
    3732:	07351963          	bne	a0,s3,37a4 <_malloc_r+0xbc>
    3736:	47b1                	li	a5,12
    3738:	00f92023          	sw	a5,0(s2)
    373c:	854a                	mv	a0,s2
    373e:	0e1000ef          	jal	ra,401e <__malloc_unlock>
    3742:	a029                	j	374c <_malloc_r+0x64>
    3744:	fc04d0e3          	bgez	s1,3704 <_malloc_r+0x1c>
    3748:	47b1                	li	a5,12
    374a:	c11c                	sw	a5,0(a0)
    374c:	4501                	li	a0,0
    374e:	40f2                	lw	ra,28(sp)
    3750:	4462                	lw	s0,24(sp)
    3752:	44d2                	lw	s1,20(sp)
    3754:	4942                	lw	s2,16(sp)
    3756:	49b2                	lw	s3,12(sp)
    3758:	6105                	addi	sp,sp,32
    375a:	8082                	ret
    375c:	401c                	lw	a5,0(s0)
    375e:	8f85                	sub	a5,a5,s1
    3760:	0207cf63          	bltz	a5,379e <_malloc_r+0xb6>
    3764:	46ad                	li	a3,11
    3766:	00f6f663          	bgeu	a3,a5,3772 <_malloc_r+0x8a>
    376a:	c01c                	sw	a5,0(s0)
    376c:	943e                	add	s0,s0,a5
    376e:	c004                	sw	s1,0(s0)
    3770:	a031                	j	377c <_malloc_r+0x94>
    3772:	405c                	lw	a5,4(s0)
    3774:	02871363          	bne	a4,s0,379a <_malloc_r+0xb2>
    3778:	8af1a823          	sw	a5,-1872(gp) # 20000200 <__malloc_free_list>
    377c:	854a                	mv	a0,s2
    377e:	0a1000ef          	jal	ra,401e <__malloc_unlock>
    3782:	00b40513          	addi	a0,s0,11
    3786:	00440793          	addi	a5,s0,4
    378a:	9961                	andi	a0,a0,-8
    378c:	40f50733          	sub	a4,a0,a5
    3790:	df5d                	beqz	a4,374e <_malloc_r+0x66>
    3792:	943a                	add	s0,s0,a4
    3794:	8f89                	sub	a5,a5,a0
    3796:	c01c                	sw	a5,0(s0)
    3798:	bf5d                	j	374e <_malloc_r+0x66>
    379a:	c35c                	sw	a5,4(a4)
    379c:	b7c5                	j	377c <_malloc_r+0x94>
    379e:	8722                	mv	a4,s0
    37a0:	4040                	lw	s0,4(s0)
    37a2:	bf95                	j	3716 <_malloc_r+0x2e>
    37a4:	00350413          	addi	s0,a0,3
    37a8:	9871                	andi	s0,s0,-4
    37aa:	fc8502e3          	beq	a0,s0,376e <_malloc_r+0x86>
    37ae:	40a405b3          	sub	a1,s0,a0
    37b2:	854a                	mv	a0,s2
    37b4:	2565                	jal	3e5c <_sbrk_r>
    37b6:	fb351ce3          	bne	a0,s3,376e <_malloc_r+0x86>
    37ba:	bfb5                	j	3736 <_malloc_r+0x4e>

000037bc <__sfputc_r>:
    37bc:	461c                	lw	a5,8(a2)
    37be:	17fd                	addi	a5,a5,-1
    37c0:	c61c                	sw	a5,8(a2)
    37c2:	0007da63          	bgez	a5,37d6 <__sfputc_r+0x1a>
    37c6:	4e18                	lw	a4,24(a2)
    37c8:	00e7c563          	blt	a5,a4,37d2 <__sfputc_r+0x16>
    37cc:	47a9                	li	a5,10
    37ce:	00f59463          	bne	a1,a5,37d6 <__sfputc_r+0x1a>
    37d2:	80bff06f          	j	2fdc <__swbuf_r>
    37d6:	421c                	lw	a5,0(a2)
    37d8:	852e                	mv	a0,a1
    37da:	00178713          	addi	a4,a5,1
    37de:	c218                	sw	a4,0(a2)
    37e0:	a38c                	sb	a1,0(a5)
    37e2:	8082                	ret

000037e4 <__sfputs_r>:
    37e4:	1101                	addi	sp,sp,-32
    37e6:	cc22                	sw	s0,24(sp)
    37e8:	ca26                	sw	s1,20(sp)
    37ea:	c84a                	sw	s2,16(sp)
    37ec:	c64e                	sw	s3,12(sp)
    37ee:	c452                	sw	s4,8(sp)
    37f0:	ce06                	sw	ra,28(sp)
    37f2:	892a                	mv	s2,a0
    37f4:	89ae                	mv	s3,a1
    37f6:	8432                	mv	s0,a2
    37f8:	00d604b3          	add	s1,a2,a3
    37fc:	5a7d                	li	s4,-1
    37fe:	00941463          	bne	s0,s1,3806 <__sfputs_r+0x22>
    3802:	4501                	li	a0,0
    3804:	a809                	j	3816 <__sfputs_r+0x32>
    3806:	200c                	lbu	a1,0(s0)
    3808:	864e                	mv	a2,s3
    380a:	854a                	mv	a0,s2
    380c:	fb1ff0ef          	jal	ra,37bc <__sfputc_r>
    3810:	0405                	addi	s0,s0,1
    3812:	ff4516e3          	bne	a0,s4,37fe <__sfputs_r+0x1a>
    3816:	40f2                	lw	ra,28(sp)
    3818:	4462                	lw	s0,24(sp)
    381a:	44d2                	lw	s1,20(sp)
    381c:	4942                	lw	s2,16(sp)
    381e:	49b2                	lw	s3,12(sp)
    3820:	4a22                	lw	s4,8(sp)
    3822:	6105                	addi	sp,sp,32
    3824:	8082                	ret

00003826 <_vfiprintf_r>:
    3826:	7135                	addi	sp,sp,-160
    3828:	cd22                	sw	s0,152(sp)
    382a:	cb26                	sw	s1,148(sp)
    382c:	c94a                	sw	s2,144(sp)
    382e:	c74e                	sw	s3,140(sp)
    3830:	cf06                	sw	ra,156(sp)
    3832:	c552                	sw	s4,136(sp)
    3834:	c356                	sw	s5,132(sp)
    3836:	c15a                	sw	s6,128(sp)
    3838:	dede                	sw	s7,124(sp)
    383a:	dce2                	sw	s8,120(sp)
    383c:	dae6                	sw	s9,116(sp)
    383e:	89aa                	mv	s3,a0
    3840:	84ae                	mv	s1,a1
    3842:	8932                	mv	s2,a2
    3844:	8436                	mv	s0,a3
    3846:	c509                	beqz	a0,3850 <_vfiprintf_r+0x2a>
    3848:	4d1c                	lw	a5,24(a0)
    384a:	e399                	bnez	a5,3850 <_vfiprintf_r+0x2a>
    384c:	b95ff0ef          	jal	ra,33e0 <__sinit>
    3850:	00001797          	auipc	a5,0x1
    3854:	9c078793          	addi	a5,a5,-1600 # 4210 <__sf_fake_stdin>
    3858:	0cf49863          	bne	s1,a5,3928 <_vfiprintf_r+0x102>
    385c:	0049a483          	lw	s1,4(s3)
    3860:	24de                	lhu	a5,12(s1)
    3862:	8ba1                	andi	a5,a5,8
    3864:	c7e5                	beqz	a5,394c <_vfiprintf_r+0x126>
    3866:	489c                	lw	a5,16(s1)
    3868:	c3f5                	beqz	a5,394c <_vfiprintf_r+0x126>
    386a:	02000793          	li	a5,32
    386e:	02f104a3          	sb	a5,41(sp)
    3872:	03000793          	li	a5,48
    3876:	d202                	sw	zero,36(sp)
    3878:	02f10523          	sb	a5,42(sp)
    387c:	c622                	sw	s0,12(sp)
    387e:	02500b93          	li	s7,37
    3882:	00001a97          	auipc	s5,0x1
    3886:	9cea8a93          	addi	s5,s5,-1586 # 4250 <__sf_fake_stdout+0x20>
    388a:	4c05                	li	s8,1
    388c:	4b29                	li	s6,10
    388e:	844a                	mv	s0,s2
    3890:	201c                	lbu	a5,0(s0)
    3892:	c399                	beqz	a5,3898 <_vfiprintf_r+0x72>
    3894:	0d779f63          	bne	a5,s7,3972 <_vfiprintf_r+0x14c>
    3898:	41240cb3          	sub	s9,s0,s2
    389c:	000c8e63          	beqz	s9,38b8 <_vfiprintf_r+0x92>
    38a0:	86e6                	mv	a3,s9
    38a2:	864a                	mv	a2,s2
    38a4:	85a6                	mv	a1,s1
    38a6:	854e                	mv	a0,s3
    38a8:	f3dff0ef          	jal	ra,37e4 <__sfputs_r>
    38ac:	57fd                	li	a5,-1
    38ae:	1cf50f63          	beq	a0,a5,3a8c <_vfiprintf_r+0x266>
    38b2:	5692                	lw	a3,36(sp)
    38b4:	96e6                	add	a3,a3,s9
    38b6:	d236                	sw	a3,36(sp)
    38b8:	201c                	lbu	a5,0(s0)
    38ba:	1c078963          	beqz	a5,3a8c <_vfiprintf_r+0x266>
    38be:	57fd                	li	a5,-1
    38c0:	00140913          	addi	s2,s0,1
    38c4:	c802                	sw	zero,16(sp)
    38c6:	ce02                	sw	zero,28(sp)
    38c8:	ca3e                	sw	a5,20(sp)
    38ca:	cc02                	sw	zero,24(sp)
    38cc:	040109a3          	sb	zero,83(sp)
    38d0:	d482                	sw	zero,104(sp)
    38d2:	00094583          	lbu	a1,0(s2)
    38d6:	4615                	li	a2,5
    38d8:	8556                	mv	a0,s5
    38da:	272d                	jal	4004 <memchr>
    38dc:	00190413          	addi	s0,s2,1
    38e0:	47c2                	lw	a5,16(sp)
    38e2:	e951                	bnez	a0,3976 <_vfiprintf_r+0x150>
    38e4:	0107f713          	andi	a4,a5,16
    38e8:	c709                	beqz	a4,38f2 <_vfiprintf_r+0xcc>
    38ea:	02000713          	li	a4,32
    38ee:	04e109a3          	sb	a4,83(sp)
    38f2:	0087f713          	andi	a4,a5,8
    38f6:	c709                	beqz	a4,3900 <_vfiprintf_r+0xda>
    38f8:	02b00713          	li	a4,43
    38fc:	04e109a3          	sb	a4,83(sp)
    3900:	00094683          	lbu	a3,0(s2)
    3904:	02a00713          	li	a4,42
    3908:	06e68f63          	beq	a3,a4,3986 <_vfiprintf_r+0x160>
    390c:	47f2                	lw	a5,28(sp)
    390e:	844a                	mv	s0,s2
    3910:	4681                	li	a3,0
    3912:	4625                	li	a2,9
    3914:	2018                	lbu	a4,0(s0)
    3916:	00140593          	addi	a1,s0,1
    391a:	fd070713          	addi	a4,a4,-48 # ffffdfd0 <_eusrstack+0xdfff8fd0>
    391e:	0ae67763          	bgeu	a2,a4,39cc <_vfiprintf_r+0x1a6>
    3922:	cab5                	beqz	a3,3996 <_vfiprintf_r+0x170>
    3924:	ce3e                	sw	a5,28(sp)
    3926:	a885                	j	3996 <_vfiprintf_r+0x170>
    3928:	00001797          	auipc	a5,0x1
    392c:	90878793          	addi	a5,a5,-1784 # 4230 <__sf_fake_stdout>
    3930:	00f49563          	bne	s1,a5,393a <_vfiprintf_r+0x114>
    3934:	0089a483          	lw	s1,8(s3)
    3938:	b725                	j	3860 <_vfiprintf_r+0x3a>
    393a:	00001797          	auipc	a5,0x1
    393e:	8b678793          	addi	a5,a5,-1866 # 41f0 <__sf_fake_stderr>
    3942:	f0f49fe3          	bne	s1,a5,3860 <_vfiprintf_r+0x3a>
    3946:	00c9a483          	lw	s1,12(s3)
    394a:	bf19                	j	3860 <_vfiprintf_r+0x3a>
    394c:	85a6                	mv	a1,s1
    394e:	854e                	mv	a0,s3
    3950:	f48ff0ef          	jal	ra,3098 <__swsetup_r>
    3954:	d919                	beqz	a0,386a <_vfiprintf_r+0x44>
    3956:	557d                	li	a0,-1
    3958:	40fa                	lw	ra,156(sp)
    395a:	446a                	lw	s0,152(sp)
    395c:	44da                	lw	s1,148(sp)
    395e:	494a                	lw	s2,144(sp)
    3960:	49ba                	lw	s3,140(sp)
    3962:	4a2a                	lw	s4,136(sp)
    3964:	4a9a                	lw	s5,132(sp)
    3966:	4b0a                	lw	s6,128(sp)
    3968:	5bf6                	lw	s7,124(sp)
    396a:	5c66                	lw	s8,120(sp)
    396c:	5cd6                	lw	s9,116(sp)
    396e:	610d                	addi	sp,sp,160
    3970:	8082                	ret
    3972:	0405                	addi	s0,s0,1
    3974:	bf31                	j	3890 <_vfiprintf_r+0x6a>
    3976:	41550533          	sub	a0,a0,s5
    397a:	00ac1533          	sll	a0,s8,a0
    397e:	8fc9                	or	a5,a5,a0
    3980:	c83e                	sw	a5,16(sp)
    3982:	8922                	mv	s2,s0
    3984:	b7b9                	j	38d2 <_vfiprintf_r+0xac>
    3986:	4732                	lw	a4,12(sp)
    3988:	00470693          	addi	a3,a4,4
    398c:	4318                	lw	a4,0(a4)
    398e:	c636                	sw	a3,12(sp)
    3990:	02074763          	bltz	a4,39be <_vfiprintf_r+0x198>
    3994:	ce3a                	sw	a4,28(sp)
    3996:	2018                	lbu	a4,0(s0)
    3998:	02e00793          	li	a5,46
    399c:	04f71d63          	bne	a4,a5,39f6 <_vfiprintf_r+0x1d0>
    39a0:	3018                	lbu	a4,1(s0)
    39a2:	02a00793          	li	a5,42
    39a6:	02f71b63          	bne	a4,a5,39dc <_vfiprintf_r+0x1b6>
    39aa:	47b2                	lw	a5,12(sp)
    39ac:	0409                	addi	s0,s0,2
    39ae:	00478713          	addi	a4,a5,4
    39b2:	439c                	lw	a5,0(a5)
    39b4:	c63a                	sw	a4,12(sp)
    39b6:	0207c163          	bltz	a5,39d8 <_vfiprintf_r+0x1b2>
    39ba:	ca3e                	sw	a5,20(sp)
    39bc:	a82d                	j	39f6 <_vfiprintf_r+0x1d0>
    39be:	40e00733          	neg	a4,a4
    39c2:	0027e793          	ori	a5,a5,2
    39c6:	ce3a                	sw	a4,28(sp)
    39c8:	c83e                	sw	a5,16(sp)
    39ca:	b7f1                	j	3996 <_vfiprintf_r+0x170>
    39cc:	036787b3          	mul	a5,a5,s6
    39d0:	4685                	li	a3,1
    39d2:	842e                	mv	s0,a1
    39d4:	97ba                	add	a5,a5,a4
    39d6:	bf3d                	j	3914 <_vfiprintf_r+0xee>
    39d8:	57fd                	li	a5,-1
    39da:	b7c5                	j	39ba <_vfiprintf_r+0x194>
    39dc:	0405                	addi	s0,s0,1
    39de:	ca02                	sw	zero,20(sp)
    39e0:	4681                	li	a3,0
    39e2:	4781                	li	a5,0
    39e4:	4625                	li	a2,9
    39e6:	2018                	lbu	a4,0(s0)
    39e8:	00140593          	addi	a1,s0,1
    39ec:	fd070713          	addi	a4,a4,-48
    39f0:	06e67463          	bgeu	a2,a4,3a58 <_vfiprintf_r+0x232>
    39f4:	f2f9                	bnez	a3,39ba <_vfiprintf_r+0x194>
    39f6:	200c                	lbu	a1,0(s0)
    39f8:	460d                	li	a2,3
    39fa:	00001517          	auipc	a0,0x1
    39fe:	85e50513          	addi	a0,a0,-1954 # 4258 <__sf_fake_stdout+0x28>
    3a02:	2509                	jal	4004 <memchr>
    3a04:	cd11                	beqz	a0,3a20 <_vfiprintf_r+0x1fa>
    3a06:	00001797          	auipc	a5,0x1
    3a0a:	85278793          	addi	a5,a5,-1966 # 4258 <__sf_fake_stdout+0x28>
    3a0e:	8d1d                	sub	a0,a0,a5
    3a10:	04000793          	li	a5,64
    3a14:	00a797b3          	sll	a5,a5,a0
    3a18:	4542                	lw	a0,16(sp)
    3a1a:	0405                	addi	s0,s0,1
    3a1c:	8d5d                	or	a0,a0,a5
    3a1e:	c82a                	sw	a0,16(sp)
    3a20:	200c                	lbu	a1,0(s0)
    3a22:	4619                	li	a2,6
    3a24:	00001517          	auipc	a0,0x1
    3a28:	83850513          	addi	a0,a0,-1992 # 425c <__sf_fake_stdout+0x2c>
    3a2c:	00140913          	addi	s2,s0,1
    3a30:	02b10423          	sb	a1,40(sp)
    3a34:	2bc1                	jal	4004 <memchr>
    3a36:	c135                	beqz	a0,3a9a <_vfiprintf_r+0x274>
    3a38:	ffffc797          	auipc	a5,0xffffc
    3a3c:	5c878793          	addi	a5,a5,1480 # 0 <_sinit>
    3a40:	e795                	bnez	a5,3a6c <_vfiprintf_r+0x246>
    3a42:	4742                	lw	a4,16(sp)
    3a44:	47b2                	lw	a5,12(sp)
    3a46:	10077713          	andi	a4,a4,256
    3a4a:	cf09                	beqz	a4,3a64 <_vfiprintf_r+0x23e>
    3a4c:	0791                	addi	a5,a5,4
    3a4e:	c63e                	sw	a5,12(sp)
    3a50:	5792                	lw	a5,36(sp)
    3a52:	97d2                	add	a5,a5,s4
    3a54:	d23e                	sw	a5,36(sp)
    3a56:	bd25                	j	388e <_vfiprintf_r+0x68>
    3a58:	036787b3          	mul	a5,a5,s6
    3a5c:	4685                	li	a3,1
    3a5e:	842e                	mv	s0,a1
    3a60:	97ba                	add	a5,a5,a4
    3a62:	b751                	j	39e6 <_vfiprintf_r+0x1c0>
    3a64:	079d                	addi	a5,a5,7
    3a66:	9be1                	andi	a5,a5,-8
    3a68:	07a1                	addi	a5,a5,8
    3a6a:	b7d5                	j	3a4e <_vfiprintf_r+0x228>
    3a6c:	0078                	addi	a4,sp,12
    3a6e:	00000697          	auipc	a3,0x0
    3a72:	d7668693          	addi	a3,a3,-650 # 37e4 <__sfputs_r>
    3a76:	8626                	mv	a2,s1
    3a78:	080c                	addi	a1,sp,16
    3a7a:	854e                	mv	a0,s3
    3a7c:	00000097          	auipc	ra,0x0
    3a80:	000000e7          	jalr	zero # 0 <_sinit>
    3a84:	57fd                	li	a5,-1
    3a86:	8a2a                	mv	s4,a0
    3a88:	fcf514e3          	bne	a0,a5,3a50 <_vfiprintf_r+0x22a>
    3a8c:	24de                	lhu	a5,12(s1)
    3a8e:	0407f793          	andi	a5,a5,64
    3a92:	ec0792e3          	bnez	a5,3956 <_vfiprintf_r+0x130>
    3a96:	5512                	lw	a0,36(sp)
    3a98:	b5c1                	j	3958 <_vfiprintf_r+0x132>
    3a9a:	0078                	addi	a4,sp,12
    3a9c:	00000697          	auipc	a3,0x0
    3aa0:	d4868693          	addi	a3,a3,-696 # 37e4 <__sfputs_r>
    3aa4:	8626                	mv	a2,s1
    3aa6:	080c                	addi	a1,sp,16
    3aa8:	854e                	mv	a0,s3
    3aaa:	2a01                	jal	3bba <_printf_i>
    3aac:	bfe1                	j	3a84 <_vfiprintf_r+0x25e>

00003aae <_printf_common>:
    3aae:	7179                	addi	sp,sp,-48
    3ab0:	ca56                	sw	s5,20(sp)
    3ab2:	499c                	lw	a5,16(a1)
    3ab4:	8aba                	mv	s5,a4
    3ab6:	4598                	lw	a4,8(a1)
    3ab8:	d422                	sw	s0,40(sp)
    3aba:	d226                	sw	s1,36(sp)
    3abc:	ce4e                	sw	s3,28(sp)
    3abe:	cc52                	sw	s4,24(sp)
    3ac0:	d606                	sw	ra,44(sp)
    3ac2:	d04a                	sw	s2,32(sp)
    3ac4:	c85a                	sw	s6,16(sp)
    3ac6:	c65e                	sw	s7,12(sp)
    3ac8:	89aa                	mv	s3,a0
    3aca:	842e                	mv	s0,a1
    3acc:	84b2                	mv	s1,a2
    3ace:	8a36                	mv	s4,a3
    3ad0:	00e7d363          	bge	a5,a4,3ad6 <_printf_common+0x28>
    3ad4:	87ba                	mv	a5,a4
    3ad6:	c09c                	sw	a5,0(s1)
    3ad8:	04344703          	lbu	a4,67(s0)
    3adc:	c319                	beqz	a4,3ae2 <_printf_common+0x34>
    3ade:	0785                	addi	a5,a5,1
    3ae0:	c09c                	sw	a5,0(s1)
    3ae2:	401c                	lw	a5,0(s0)
    3ae4:	0207f793          	andi	a5,a5,32
    3ae8:	c781                	beqz	a5,3af0 <_printf_common+0x42>
    3aea:	409c                	lw	a5,0(s1)
    3aec:	0789                	addi	a5,a5,2
    3aee:	c09c                	sw	a5,0(s1)
    3af0:	00042903          	lw	s2,0(s0)
    3af4:	00697913          	andi	s2,s2,6
    3af8:	00091a63          	bnez	s2,3b0c <_printf_common+0x5e>
    3afc:	01940b13          	addi	s6,s0,25
    3b00:	5bfd                	li	s7,-1
    3b02:	445c                	lw	a5,12(s0)
    3b04:	4098                	lw	a4,0(s1)
    3b06:	8f99                	sub	a5,a5,a4
    3b08:	04f94c63          	blt	s2,a5,3b60 <_printf_common+0xb2>
    3b0c:	401c                	lw	a5,0(s0)
    3b0e:	04344683          	lbu	a3,67(s0)
    3b12:	0207f793          	andi	a5,a5,32
    3b16:	00d036b3          	snez	a3,a3
    3b1a:	eba5                	bnez	a5,3b8a <_printf_common+0xdc>
    3b1c:	04340613          	addi	a2,s0,67
    3b20:	85d2                	mv	a1,s4
    3b22:	854e                	mv	a0,s3
    3b24:	9a82                	jalr	s5
    3b26:	57fd                	li	a5,-1
    3b28:	04f50363          	beq	a0,a5,3b6e <_printf_common+0xc0>
    3b2c:	401c                	lw	a5,0(s0)
    3b2e:	4611                	li	a2,4
    3b30:	4098                	lw	a4,0(s1)
    3b32:	8b99                	andi	a5,a5,6
    3b34:	4454                	lw	a3,12(s0)
    3b36:	4481                	li	s1,0
    3b38:	00c79763          	bne	a5,a2,3b46 <_printf_common+0x98>
    3b3c:	40e684b3          	sub	s1,a3,a4
    3b40:	0004d363          	bgez	s1,3b46 <_printf_common+0x98>
    3b44:	4481                	li	s1,0
    3b46:	441c                	lw	a5,8(s0)
    3b48:	4818                	lw	a4,16(s0)
    3b4a:	00f75463          	bge	a4,a5,3b52 <_printf_common+0xa4>
    3b4e:	8f99                	sub	a5,a5,a4
    3b50:	94be                	add	s1,s1,a5
    3b52:	4901                	li	s2,0
    3b54:	0469                	addi	s0,s0,26
    3b56:	5b7d                	li	s6,-1
    3b58:	05249863          	bne	s1,s2,3ba8 <_printf_common+0xfa>
    3b5c:	4501                	li	a0,0
    3b5e:	a809                	j	3b70 <_printf_common+0xc2>
    3b60:	4685                	li	a3,1
    3b62:	865a                	mv	a2,s6
    3b64:	85d2                	mv	a1,s4
    3b66:	854e                	mv	a0,s3
    3b68:	9a82                	jalr	s5
    3b6a:	01751e63          	bne	a0,s7,3b86 <_printf_common+0xd8>
    3b6e:	557d                	li	a0,-1
    3b70:	50b2                	lw	ra,44(sp)
    3b72:	5422                	lw	s0,40(sp)
    3b74:	5492                	lw	s1,36(sp)
    3b76:	5902                	lw	s2,32(sp)
    3b78:	49f2                	lw	s3,28(sp)
    3b7a:	4a62                	lw	s4,24(sp)
    3b7c:	4ad2                	lw	s5,20(sp)
    3b7e:	4b42                	lw	s6,16(sp)
    3b80:	4bb2                	lw	s7,12(sp)
    3b82:	6145                	addi	sp,sp,48
    3b84:	8082                	ret
    3b86:	0905                	addi	s2,s2,1
    3b88:	bfad                	j	3b02 <_printf_common+0x54>
    3b8a:	00d40733          	add	a4,s0,a3
    3b8e:	03000613          	li	a2,48
    3b92:	04c701a3          	sb	a2,67(a4)
    3b96:	04544703          	lbu	a4,69(s0)
    3b9a:	00168793          	addi	a5,a3,1
    3b9e:	97a2                	add	a5,a5,s0
    3ba0:	0689                	addi	a3,a3,2
    3ba2:	04e781a3          	sb	a4,67(a5)
    3ba6:	bf9d                	j	3b1c <_printf_common+0x6e>
    3ba8:	4685                	li	a3,1
    3baa:	8622                	mv	a2,s0
    3bac:	85d2                	mv	a1,s4
    3bae:	854e                	mv	a0,s3
    3bb0:	9a82                	jalr	s5
    3bb2:	fb650ee3          	beq	a0,s6,3b6e <_printf_common+0xc0>
    3bb6:	0905                	addi	s2,s2,1
    3bb8:	b745                	j	3b58 <_printf_common+0xaa>

00003bba <_printf_i>:
    3bba:	7179                	addi	sp,sp,-48
    3bbc:	d422                	sw	s0,40(sp)
    3bbe:	d226                	sw	s1,36(sp)
    3bc0:	d04a                	sw	s2,32(sp)
    3bc2:	ce4e                	sw	s3,28(sp)
    3bc4:	d606                	sw	ra,44(sp)
    3bc6:	cc52                	sw	s4,24(sp)
    3bc8:	ca56                	sw	s5,20(sp)
    3bca:	c85a                	sw	s6,16(sp)
    3bcc:	89b6                	mv	s3,a3
    3bce:	2d94                	lbu	a3,24(a1)
    3bd0:	06900793          	li	a5,105
    3bd4:	8932                	mv	s2,a2
    3bd6:	84aa                	mv	s1,a0
    3bd8:	842e                	mv	s0,a1
    3bda:	04358613          	addi	a2,a1,67
    3bde:	02f68d63          	beq	a3,a5,3c18 <_printf_i+0x5e>
    3be2:	06d7e263          	bltu	a5,a3,3c46 <_printf_i+0x8c>
    3be6:	05800793          	li	a5,88
    3bea:	18f68663          	beq	a3,a5,3d76 <_printf_i+0x1bc>
    3bee:	00d7ed63          	bltu	a5,a3,3c08 <_printf_i+0x4e>
    3bf2:	20068e63          	beqz	a3,3e0e <_printf_i+0x254>
    3bf6:	04300793          	li	a5,67
    3bfa:	0af68e63          	beq	a3,a5,3cb6 <_printf_i+0xfc>
    3bfe:	04240a93          	addi	s5,s0,66
    3c02:	04d40123          	sb	a3,66(s0)
    3c06:	a0c9                	j	3cc8 <_printf_i+0x10e>
    3c08:	06300793          	li	a5,99
    3c0c:	0af68563          	beq	a3,a5,3cb6 <_printf_i+0xfc>
    3c10:	06400793          	li	a5,100
    3c14:	fef695e3          	bne	a3,a5,3bfe <_printf_i+0x44>
    3c18:	401c                	lw	a5,0(s0)
    3c1a:	4308                	lw	a0,0(a4)
    3c1c:	0807f693          	andi	a3,a5,128
    3c20:	00450593          	addi	a1,a0,4
    3c24:	c6c5                	beqz	a3,3ccc <_printf_i+0x112>
    3c26:	411c                	lw	a5,0(a0)
    3c28:	c30c                	sw	a1,0(a4)
    3c2a:	0007d863          	bgez	a5,3c3a <_printf_i+0x80>
    3c2e:	02d00713          	li	a4,45
    3c32:	40f007b3          	neg	a5,a5
    3c36:	04e401a3          	sb	a4,67(s0)
    3c3a:	00000697          	auipc	a3,0x0
    3c3e:	62a68693          	addi	a3,a3,1578 # 4264 <__sf_fake_stdout+0x34>
    3c42:	4729                	li	a4,10
    3c44:	a865                	j	3cfc <_printf_i+0x142>
    3c46:	07000793          	li	a5,112
    3c4a:	16f68263          	beq	a3,a5,3dae <_printf_i+0x1f4>
    3c4e:	02d7e563          	bltu	a5,a3,3c78 <_printf_i+0xbe>
    3c52:	06e00793          	li	a5,110
    3c56:	18f68963          	beq	a3,a5,3de8 <_printf_i+0x22e>
    3c5a:	06f00793          	li	a5,111
    3c5e:	faf690e3          	bne	a3,a5,3bfe <_printf_i+0x44>
    3c62:	400c                	lw	a1,0(s0)
    3c64:	431c                	lw	a5,0(a4)
    3c66:	0805f813          	andi	a6,a1,128
    3c6a:	00478513          	addi	a0,a5,4
    3c6e:	06080763          	beqz	a6,3cdc <_printf_i+0x122>
    3c72:	c308                	sw	a0,0(a4)
    3c74:	439c                	lw	a5,0(a5)
    3c76:	a885                	j	3ce6 <_printf_i+0x12c>
    3c78:	07500793          	li	a5,117
    3c7c:	fef683e3          	beq	a3,a5,3c62 <_printf_i+0xa8>
    3c80:	07800793          	li	a5,120
    3c84:	12f68963          	beq	a3,a5,3db6 <_printf_i+0x1fc>
    3c88:	07300793          	li	a5,115
    3c8c:	f6f699e3          	bne	a3,a5,3bfe <_printf_i+0x44>
    3c90:	431c                	lw	a5,0(a4)
    3c92:	41d0                	lw	a2,4(a1)
    3c94:	4581                	li	a1,0
    3c96:	00478693          	addi	a3,a5,4
    3c9a:	c314                	sw	a3,0(a4)
    3c9c:	0007aa83          	lw	s5,0(a5)
    3ca0:	8556                	mv	a0,s5
    3ca2:	268d                	jal	4004 <memchr>
    3ca4:	c501                	beqz	a0,3cac <_printf_i+0xf2>
    3ca6:	41550533          	sub	a0,a0,s5
    3caa:	c048                	sw	a0,4(s0)
    3cac:	405c                	lw	a5,4(s0)
    3cae:	c81c                	sw	a5,16(s0)
    3cb0:	040401a3          	sb	zero,67(s0)
    3cb4:	a861                	j	3d4c <_printf_i+0x192>
    3cb6:	431c                	lw	a5,0(a4)
    3cb8:	04240a93          	addi	s5,s0,66
    3cbc:	00478693          	addi	a3,a5,4
    3cc0:	439c                	lw	a5,0(a5)
    3cc2:	c314                	sw	a3,0(a4)
    3cc4:	04f40123          	sb	a5,66(s0)
    3cc8:	4785                	li	a5,1
    3cca:	b7d5                	j	3cae <_printf_i+0xf4>
    3ccc:	0407f693          	andi	a3,a5,64
    3cd0:	411c                	lw	a5,0(a0)
    3cd2:	c30c                	sw	a1,0(a4)
    3cd4:	dab9                	beqz	a3,3c2a <_printf_i+0x70>
    3cd6:	07c2                	slli	a5,a5,0x10
    3cd8:	87c1                	srai	a5,a5,0x10
    3cda:	bf81                	j	3c2a <_printf_i+0x70>
    3cdc:	0405f593          	andi	a1,a1,64
    3ce0:	c308                	sw	a0,0(a4)
    3ce2:	d9c9                	beqz	a1,3c74 <_printf_i+0xba>
    3ce4:	239e                	lhu	a5,0(a5)
    3ce6:	06f00713          	li	a4,111
    3cea:	0ee68763          	beq	a3,a4,3dd8 <_printf_i+0x21e>
    3cee:	00000697          	auipc	a3,0x0
    3cf2:	57668693          	addi	a3,a3,1398 # 4264 <__sf_fake_stdout+0x34>
    3cf6:	4729                	li	a4,10
    3cf8:	040401a3          	sb	zero,67(s0)
    3cfc:	404c                	lw	a1,4(s0)
    3cfe:	c40c                	sw	a1,8(s0)
    3d00:	0005c563          	bltz	a1,3d0a <_printf_i+0x150>
    3d04:	4008                	lw	a0,0(s0)
    3d06:	996d                	andi	a0,a0,-5
    3d08:	c008                	sw	a0,0(s0)
    3d0a:	e399                	bnez	a5,3d10 <_printf_i+0x156>
    3d0c:	8ab2                	mv	s5,a2
    3d0e:	cd89                	beqz	a1,3d28 <_printf_i+0x16e>
    3d10:	8ab2                	mv	s5,a2
    3d12:	02e7f5b3          	remu	a1,a5,a4
    3d16:	1afd                	addi	s5,s5,-1
    3d18:	95b6                	add	a1,a1,a3
    3d1a:	218c                	lbu	a1,0(a1)
    3d1c:	00ba8023          	sb	a1,0(s5)
    3d20:	02e7d5b3          	divu	a1,a5,a4
    3d24:	0ce7f063          	bgeu	a5,a4,3de4 <_printf_i+0x22a>
    3d28:	47a1                	li	a5,8
    3d2a:	00f71e63          	bne	a4,a5,3d46 <_printf_i+0x18c>
    3d2e:	401c                	lw	a5,0(s0)
    3d30:	8b85                	andi	a5,a5,1
    3d32:	cb91                	beqz	a5,3d46 <_printf_i+0x18c>
    3d34:	4058                	lw	a4,4(s0)
    3d36:	481c                	lw	a5,16(s0)
    3d38:	00e7c763          	blt	a5,a4,3d46 <_printf_i+0x18c>
    3d3c:	03000793          	li	a5,48
    3d40:	fefa8fa3          	sb	a5,-1(s5)
    3d44:	1afd                	addi	s5,s5,-1
    3d46:	41560633          	sub	a2,a2,s5
    3d4a:	c810                	sw	a2,16(s0)
    3d4c:	874e                	mv	a4,s3
    3d4e:	86ca                	mv	a3,s2
    3d50:	0070                	addi	a2,sp,12
    3d52:	85a2                	mv	a1,s0
    3d54:	8526                	mv	a0,s1
    3d56:	d59ff0ef          	jal	ra,3aae <_printf_common>
    3d5a:	5a7d                	li	s4,-1
    3d5c:	0b451d63          	bne	a0,s4,3e16 <_printf_i+0x25c>
    3d60:	557d                	li	a0,-1
    3d62:	50b2                	lw	ra,44(sp)
    3d64:	5422                	lw	s0,40(sp)
    3d66:	5492                	lw	s1,36(sp)
    3d68:	5902                	lw	s2,32(sp)
    3d6a:	49f2                	lw	s3,28(sp)
    3d6c:	4a62                	lw	s4,24(sp)
    3d6e:	4ad2                	lw	s5,20(sp)
    3d70:	4b42                	lw	s6,16(sp)
    3d72:	6145                	addi	sp,sp,48
    3d74:	8082                	ret
    3d76:	04d582a3          	sb	a3,69(a1)
    3d7a:	00000697          	auipc	a3,0x0
    3d7e:	4ea68693          	addi	a3,a3,1258 # 4264 <__sf_fake_stdout+0x34>
    3d82:	400c                	lw	a1,0(s0)
    3d84:	4308                	lw	a0,0(a4)
    3d86:	0805f813          	andi	a6,a1,128
    3d8a:	411c                	lw	a5,0(a0)
    3d8c:	0511                	addi	a0,a0,4
    3d8e:	02080d63          	beqz	a6,3dc8 <_printf_i+0x20e>
    3d92:	c308                	sw	a0,0(a4)
    3d94:	0015f713          	andi	a4,a1,1
    3d98:	c701                	beqz	a4,3da0 <_printf_i+0x1e6>
    3d9a:	0205e593          	ori	a1,a1,32
    3d9e:	c00c                	sw	a1,0(s0)
    3da0:	4741                	li	a4,16
    3da2:	fbb9                	bnez	a5,3cf8 <_printf_i+0x13e>
    3da4:	400c                	lw	a1,0(s0)
    3da6:	fdf5f593          	andi	a1,a1,-33
    3daa:	c00c                	sw	a1,0(s0)
    3dac:	b7b1                	j	3cf8 <_printf_i+0x13e>
    3dae:	419c                	lw	a5,0(a1)
    3db0:	0207e793          	ori	a5,a5,32
    3db4:	c19c                	sw	a5,0(a1)
    3db6:	07800793          	li	a5,120
    3dba:	04f402a3          	sb	a5,69(s0)
    3dbe:	00000697          	auipc	a3,0x0
    3dc2:	4ba68693          	addi	a3,a3,1210 # 4278 <__sf_fake_stdout+0x48>
    3dc6:	bf75                	j	3d82 <_printf_i+0x1c8>
    3dc8:	0405f813          	andi	a6,a1,64
    3dcc:	c308                	sw	a0,0(a4)
    3dce:	fc0803e3          	beqz	a6,3d94 <_printf_i+0x1da>
    3dd2:	07c2                	slli	a5,a5,0x10
    3dd4:	83c1                	srli	a5,a5,0x10
    3dd6:	bf7d                	j	3d94 <_printf_i+0x1da>
    3dd8:	00000697          	auipc	a3,0x0
    3ddc:	48c68693          	addi	a3,a3,1164 # 4264 <__sf_fake_stdout+0x34>
    3de0:	4721                	li	a4,8
    3de2:	bf19                	j	3cf8 <_printf_i+0x13e>
    3de4:	87ae                	mv	a5,a1
    3de6:	b735                	j	3d12 <_printf_i+0x158>
    3de8:	4194                	lw	a3,0(a1)
    3dea:	431c                	lw	a5,0(a4)
    3dec:	49cc                	lw	a1,20(a1)
    3dee:	0806f813          	andi	a6,a3,128
    3df2:	00478513          	addi	a0,a5,4
    3df6:	00080663          	beqz	a6,3e02 <_printf_i+0x248>
    3dfa:	c308                	sw	a0,0(a4)
    3dfc:	439c                	lw	a5,0(a5)
    3dfe:	c38c                	sw	a1,0(a5)
    3e00:	a039                	j	3e0e <_printf_i+0x254>
    3e02:	c308                	sw	a0,0(a4)
    3e04:	0406f693          	andi	a3,a3,64
    3e08:	439c                	lw	a5,0(a5)
    3e0a:	daf5                	beqz	a3,3dfe <_printf_i+0x244>
    3e0c:	a38e                	sh	a1,0(a5)
    3e0e:	00042823          	sw	zero,16(s0)
    3e12:	8ab2                	mv	s5,a2
    3e14:	bf25                	j	3d4c <_printf_i+0x192>
    3e16:	4814                	lw	a3,16(s0)
    3e18:	8656                	mv	a2,s5
    3e1a:	85ca                	mv	a1,s2
    3e1c:	8526                	mv	a0,s1
    3e1e:	9982                	jalr	s3
    3e20:	f54500e3          	beq	a0,s4,3d60 <_printf_i+0x1a6>
    3e24:	401c                	lw	a5,0(s0)
    3e26:	8b89                	andi	a5,a5,2
    3e28:	e78d                	bnez	a5,3e52 <_printf_i+0x298>
    3e2a:	47b2                	lw	a5,12(sp)
    3e2c:	4448                	lw	a0,12(s0)
    3e2e:	f2f55ae3          	bge	a0,a5,3d62 <_printf_i+0x1a8>
    3e32:	853e                	mv	a0,a5
    3e34:	b73d                	j	3d62 <_printf_i+0x1a8>
    3e36:	4685                	li	a3,1
    3e38:	8656                	mv	a2,s5
    3e3a:	85ca                	mv	a1,s2
    3e3c:	8526                	mv	a0,s1
    3e3e:	9982                	jalr	s3
    3e40:	f36500e3          	beq	a0,s6,3d60 <_printf_i+0x1a6>
    3e44:	0a05                	addi	s4,s4,1
    3e46:	445c                	lw	a5,12(s0)
    3e48:	4732                	lw	a4,12(sp)
    3e4a:	8f99                	sub	a5,a5,a4
    3e4c:	fefa45e3          	blt	s4,a5,3e36 <_printf_i+0x27c>
    3e50:	bfe9                	j	3e2a <_printf_i+0x270>
    3e52:	4a01                	li	s4,0
    3e54:	01940a93          	addi	s5,s0,25
    3e58:	5b7d                	li	s6,-1
    3e5a:	b7f5                	j	3e46 <_printf_i+0x28c>

00003e5c <_sbrk_r>:
    3e5c:	1141                	addi	sp,sp,-16
    3e5e:	c422                	sw	s0,8(sp)
    3e60:	842a                	mv	s0,a0
    3e62:	852e                	mv	a0,a1
    3e64:	d401aa23          	sw	zero,-684(gp) # 200006a4 <errno>
    3e68:	c606                	sw	ra,12(sp)
    3e6a:	f7bfe0ef          	jal	ra,2de4 <_sbrk>
    3e6e:	57fd                	li	a5,-1
    3e70:	00f51763          	bne	a0,a5,3e7e <_sbrk_r+0x22>
    3e74:	d5418793          	addi	a5,gp,-684 # 200006a4 <errno>
    3e78:	439c                	lw	a5,0(a5)
    3e7a:	c391                	beqz	a5,3e7e <_sbrk_r+0x22>
    3e7c:	c01c                	sw	a5,0(s0)
    3e7e:	40b2                	lw	ra,12(sp)
    3e80:	4422                	lw	s0,8(sp)
    3e82:	0141                	addi	sp,sp,16
    3e84:	8082                	ret

00003e86 <__sread>:
    3e86:	1141                	addi	sp,sp,-16
    3e88:	c422                	sw	s0,8(sp)
    3e8a:	842e                	mv	s0,a1
    3e8c:	00e59583          	lh	a1,14(a1)
    3e90:	c606                	sw	ra,12(sp)
    3e92:	2279                	jal	4020 <_read_r>
    3e94:	00054963          	bltz	a0,3ea6 <__sread+0x20>
    3e98:	487c                	lw	a5,84(s0)
    3e9a:	97aa                	add	a5,a5,a0
    3e9c:	c87c                	sw	a5,84(s0)
    3e9e:	40b2                	lw	ra,12(sp)
    3ea0:	4422                	lw	s0,8(sp)
    3ea2:	0141                	addi	sp,sp,16
    3ea4:	8082                	ret
    3ea6:	245e                	lhu	a5,12(s0)
    3ea8:	777d                	lui	a4,0xfffff
    3eaa:	177d                	addi	a4,a4,-1
    3eac:	8ff9                	and	a5,a5,a4
    3eae:	a45e                	sh	a5,12(s0)
    3eb0:	b7fd                	j	3e9e <__sread+0x18>

00003eb2 <__swrite>:
    3eb2:	25de                	lhu	a5,12(a1)
    3eb4:	1101                	addi	sp,sp,-32
    3eb6:	cc22                	sw	s0,24(sp)
    3eb8:	ca26                	sw	s1,20(sp)
    3eba:	c84a                	sw	s2,16(sp)
    3ebc:	c64e                	sw	s3,12(sp)
    3ebe:	ce06                	sw	ra,28(sp)
    3ec0:	1007f793          	andi	a5,a5,256
    3ec4:	84aa                	mv	s1,a0
    3ec6:	842e                	mv	s0,a1
    3ec8:	8932                	mv	s2,a2
    3eca:	89b6                	mv	s3,a3
    3ecc:	c791                	beqz	a5,3ed8 <__swrite+0x26>
    3ece:	00e59583          	lh	a1,14(a1)
    3ed2:	4689                	li	a3,2
    3ed4:	4601                	li	a2,0
    3ed6:	2209                	jal	3fd8 <_lseek_r>
    3ed8:	245e                	lhu	a5,12(s0)
    3eda:	777d                	lui	a4,0xfffff
    3edc:	177d                	addi	a4,a4,-1
    3ede:	8ff9                	and	a5,a5,a4
    3ee0:	a45e                	sh	a5,12(s0)
    3ee2:	00e41583          	lh	a1,14(s0)
    3ee6:	4462                	lw	s0,24(sp)
    3ee8:	40f2                	lw	ra,28(sp)
    3eea:	86ce                	mv	a3,s3
    3eec:	864a                	mv	a2,s2
    3eee:	49b2                	lw	s3,12(sp)
    3ef0:	4942                	lw	s2,16(sp)
    3ef2:	8526                	mv	a0,s1
    3ef4:	44d2                	lw	s1,20(sp)
    3ef6:	6105                	addi	sp,sp,32
    3ef8:	a825                	j	3f30 <_write_r>

00003efa <__sseek>:
    3efa:	1141                	addi	sp,sp,-16
    3efc:	c422                	sw	s0,8(sp)
    3efe:	842e                	mv	s0,a1
    3f00:	00e59583          	lh	a1,14(a1)
    3f04:	c606                	sw	ra,12(sp)
    3f06:	28c9                	jal	3fd8 <_lseek_r>
    3f08:	57fd                	li	a5,-1
    3f0a:	245a                	lhu	a4,12(s0)
    3f0c:	00f51a63          	bne	a0,a5,3f20 <__sseek+0x26>
    3f10:	77fd                	lui	a5,0xfffff
    3f12:	17fd                	addi	a5,a5,-1
    3f14:	8ff9                	and	a5,a5,a4
    3f16:	a45e                	sh	a5,12(s0)
    3f18:	40b2                	lw	ra,12(sp)
    3f1a:	4422                	lw	s0,8(sp)
    3f1c:	0141                	addi	sp,sp,16
    3f1e:	8082                	ret
    3f20:	6785                	lui	a5,0x1
    3f22:	8fd9                	or	a5,a5,a4
    3f24:	a45e                	sh	a5,12(s0)
    3f26:	c868                	sw	a0,84(s0)
    3f28:	bfc5                	j	3f18 <__sseek+0x1e>

00003f2a <__sclose>:
    3f2a:	00e59583          	lh	a1,14(a1)
    3f2e:	a805                	j	3f5e <_close_r>

00003f30 <_write_r>:
    3f30:	1141                	addi	sp,sp,-16
    3f32:	c422                	sw	s0,8(sp)
    3f34:	842a                	mv	s0,a0
    3f36:	852e                	mv	a0,a1
    3f38:	85b2                	mv	a1,a2
    3f3a:	8636                	mv	a2,a3
    3f3c:	d401aa23          	sw	zero,-684(gp) # 200006a4 <errno>
    3f40:	c606                	sw	ra,12(sp)
    3f42:	e65fe0ef          	jal	ra,2da6 <_write>
    3f46:	57fd                	li	a5,-1
    3f48:	00f51763          	bne	a0,a5,3f56 <_write_r+0x26>
    3f4c:	d5418793          	addi	a5,gp,-684 # 200006a4 <errno>
    3f50:	439c                	lw	a5,0(a5)
    3f52:	c391                	beqz	a5,3f56 <_write_r+0x26>
    3f54:	c01c                	sw	a5,0(s0)
    3f56:	40b2                	lw	ra,12(sp)
    3f58:	4422                	lw	s0,8(sp)
    3f5a:	0141                	addi	sp,sp,16
    3f5c:	8082                	ret

00003f5e <_close_r>:
    3f5e:	1141                	addi	sp,sp,-16
    3f60:	c422                	sw	s0,8(sp)
    3f62:	842a                	mv	s0,a0
    3f64:	852e                	mv	a0,a1
    3f66:	d401aa23          	sw	zero,-684(gp) # 200006a4 <errno>
    3f6a:	c606                	sw	ra,12(sp)
    3f6c:	20c5                	jal	404c <_close>
    3f6e:	57fd                	li	a5,-1
    3f70:	00f51763          	bne	a0,a5,3f7e <_close_r+0x20>
    3f74:	d5418793          	addi	a5,gp,-684 # 200006a4 <errno>
    3f78:	439c                	lw	a5,0(a5)
    3f7a:	c391                	beqz	a5,3f7e <_close_r+0x20>
    3f7c:	c01c                	sw	a5,0(s0)
    3f7e:	40b2                	lw	ra,12(sp)
    3f80:	4422                	lw	s0,8(sp)
    3f82:	0141                	addi	sp,sp,16
    3f84:	8082                	ret

00003f86 <_fstat_r>:
    3f86:	1141                	addi	sp,sp,-16
    3f88:	c422                	sw	s0,8(sp)
    3f8a:	842a                	mv	s0,a0
    3f8c:	852e                	mv	a0,a1
    3f8e:	85b2                	mv	a1,a2
    3f90:	d401aa23          	sw	zero,-684(gp) # 200006a4 <errno>
    3f94:	c606                	sw	ra,12(sp)
    3f96:	20c9                	jal	4058 <_fstat>
    3f98:	57fd                	li	a5,-1
    3f9a:	00f51763          	bne	a0,a5,3fa8 <_fstat_r+0x22>
    3f9e:	d5418793          	addi	a5,gp,-684 # 200006a4 <errno>
    3fa2:	439c                	lw	a5,0(a5)
    3fa4:	c391                	beqz	a5,3fa8 <_fstat_r+0x22>
    3fa6:	c01c                	sw	a5,0(s0)
    3fa8:	40b2                	lw	ra,12(sp)
    3faa:	4422                	lw	s0,8(sp)
    3fac:	0141                	addi	sp,sp,16
    3fae:	8082                	ret

00003fb0 <_isatty_r>:
    3fb0:	1141                	addi	sp,sp,-16
    3fb2:	c422                	sw	s0,8(sp)
    3fb4:	842a                	mv	s0,a0
    3fb6:	852e                	mv	a0,a1
    3fb8:	d401aa23          	sw	zero,-684(gp) # 200006a4 <errno>
    3fbc:	c606                	sw	ra,12(sp)
    3fbe:	205d                	jal	4064 <_isatty>
    3fc0:	57fd                	li	a5,-1
    3fc2:	00f51763          	bne	a0,a5,3fd0 <_isatty_r+0x20>
    3fc6:	d5418793          	addi	a5,gp,-684 # 200006a4 <errno>
    3fca:	439c                	lw	a5,0(a5)
    3fcc:	c391                	beqz	a5,3fd0 <_isatty_r+0x20>
    3fce:	c01c                	sw	a5,0(s0)
    3fd0:	40b2                	lw	ra,12(sp)
    3fd2:	4422                	lw	s0,8(sp)
    3fd4:	0141                	addi	sp,sp,16
    3fd6:	8082                	ret

00003fd8 <_lseek_r>:
    3fd8:	1141                	addi	sp,sp,-16
    3fda:	c422                	sw	s0,8(sp)
    3fdc:	842a                	mv	s0,a0
    3fde:	852e                	mv	a0,a1
    3fe0:	85b2                	mv	a1,a2
    3fe2:	8636                	mv	a2,a3
    3fe4:	d401aa23          	sw	zero,-684(gp) # 200006a4 <errno>
    3fe8:	c606                	sw	ra,12(sp)
    3fea:	2059                	jal	4070 <_lseek>
    3fec:	57fd                	li	a5,-1
    3fee:	00f51763          	bne	a0,a5,3ffc <_lseek_r+0x24>
    3ff2:	d5418793          	addi	a5,gp,-684 # 200006a4 <errno>
    3ff6:	439c                	lw	a5,0(a5)
    3ff8:	c391                	beqz	a5,3ffc <_lseek_r+0x24>
    3ffa:	c01c                	sw	a5,0(s0)
    3ffc:	40b2                	lw	ra,12(sp)
    3ffe:	4422                	lw	s0,8(sp)
    4000:	0141                	addi	sp,sp,16
    4002:	8082                	ret

00004004 <memchr>:
    4004:	0ff5f593          	andi	a1,a1,255
    4008:	962a                	add	a2,a2,a0
    400a:	00c51463          	bne	a0,a2,4012 <memchr+0xe>
    400e:	4501                	li	a0,0
    4010:	8082                	ret
    4012:	211c                	lbu	a5,0(a0)
    4014:	feb78ee3          	beq	a5,a1,4010 <memchr+0xc>
    4018:	0505                	addi	a0,a0,1
    401a:	bfc5                	j	400a <memchr+0x6>

0000401c <__malloc_lock>:
    401c:	8082                	ret

0000401e <__malloc_unlock>:
    401e:	8082                	ret

00004020 <_read_r>:
    4020:	1141                	addi	sp,sp,-16
    4022:	c422                	sw	s0,8(sp)
    4024:	842a                	mv	s0,a0
    4026:	852e                	mv	a0,a1
    4028:	85b2                	mv	a1,a2
    402a:	8636                	mv	a2,a3
    402c:	d401aa23          	sw	zero,-684(gp) # 200006a4 <errno>
    4030:	c606                	sw	ra,12(sp)
    4032:	20a9                	jal	407c <_read>
    4034:	57fd                	li	a5,-1
    4036:	00f51763          	bne	a0,a5,4044 <_read_r+0x24>
    403a:	d5418793          	addi	a5,gp,-684 # 200006a4 <errno>
    403e:	439c                	lw	a5,0(a5)
    4040:	c391                	beqz	a5,4044 <_read_r+0x24>
    4042:	c01c                	sw	a5,0(s0)
    4044:	40b2                	lw	ra,12(sp)
    4046:	4422                	lw	s0,8(sp)
    4048:	0141                	addi	sp,sp,16
    404a:	8082                	ret

0000404c <_close>:
    404c:	05800793          	li	a5,88
    4050:	d4f1aa23          	sw	a5,-684(gp) # 200006a4 <errno>
    4054:	557d                	li	a0,-1
    4056:	8082                	ret

00004058 <_fstat>:
    4058:	05800793          	li	a5,88
    405c:	d4f1aa23          	sw	a5,-684(gp) # 200006a4 <errno>
    4060:	557d                	li	a0,-1
    4062:	8082                	ret

00004064 <_isatty>:
    4064:	05800793          	li	a5,88
    4068:	d4f1aa23          	sw	a5,-684(gp) # 200006a4 <errno>
    406c:	4501                	li	a0,0
    406e:	8082                	ret

00004070 <_lseek>:
    4070:	05800793          	li	a5,88
    4074:	d4f1aa23          	sw	a5,-684(gp) # 200006a4 <errno>
    4078:	557d                	li	a0,-1
    407a:	8082                	ret

0000407c <_read>:
    407c:	05800793          	li	a5,88
    4080:	d4f1aa23          	sw	a5,-684(gp) # 200006a4 <errno>
    4084:	557d                	li	a0,-1
    4086:	8082                	ret
    4088:	7375                	lui	t1,0xffffd
    408a:	2062                	lhu	s0,6(s0)
    408c:	6e65                	lui	t3,0x19
    408e:	6574                	flw	fa3,76(a0)
    4090:	2072                	lhu	a2,6(s0)
    4092:	6f6c                	flw	fa1,92(a4)
    4094:	6f702077          	0x6f702077
    4098:	20726577          	0x20726577
    409c:	6f6d                	lui	t5,0x1b
    409e:	6564                	flw	fs1,76(a0)
    40a0:	000d                	c.nop	3
    40a2:	0000                	unimp
    40a4:	7375                	lui	t1,0xffffd
    40a6:	2062                	lhu	s0,6(s0)
    40a8:	656c                	flw	fa1,76(a0)
    40aa:	7661                	lui	a2,0xffff8
    40ac:	2065                	jal	4154 <UDISK_Mode_Senese_5A+0x4>
    40ae:	6f6c                	flw	fa1,92(a4)
    40b0:	6f702077          	0x6f702077
    40b4:	20726577          	0x20726577
    40b8:	6f6d                	lui	t5,0x1b
    40ba:	6564                	flw	fs1,76(a0)
    40bc:	000d                	c.nop	3
	...

000040c0 <USBD_ConfigDescriptor>:
    40c0:	0209 0020 0101 8000 0932 0004 0200 0608     .. .....2.......
    40d0:	0050 0507 0282 0040 0700 0305 4002 0000     P.....@......@..

000040e0 <USBD_DeviceDescriptor>:
    40e0:	0112 0200 0000 4000 1a86 fe10 0001 0201     .......@........
    40f0:	0100 0000                                   ....

000040f4 <USBD_StringProduct>:
    40f4:	0316 0043 0048 0032 0030 0078 0055 0044     ..C.H.2.0.x.U.D.
    4104:	0069 0073 006b 0000                         i.s.k...

0000410c <USBD_StringSerial>:
    410c:	031a 0057 0043 0048 0033 0032 0000 0000     ..W.C.H.3.2.....
	...

00004128 <USBD_StringVendor>:
    4128:	030e 0077 0063 0068 002e 0063 006e 0000     ..w.c.h...c.n...
    4138:	1a2e 0000 1a40 0000 1a50 0000 1a58 0000     ....@...P...X...
    4148:	1a6e 0000 1a8c 0000                         n.......

00004150 <UDISK_Mode_Senese_5A>:
    4150:	0e00 0000 0000 0800 0000 3f00 0000 0002     ...........?....

00004160 <UDISK_Mode_Sense_1A>:
    4160:	000b 0800 0000 3f00 0000 0002               .......?....

0000416c <UDISK_Rd_Format_Capacity>:
    416c:	0000 0800 0000 4000 0002 0002 7953 7473     .......@....Syst
    417c:	6d65 6c43 3a6b 6425 0a0d 0000 5355 4442     emClk:%d....USBD
    418c:	5520 4944 4b53 5320 4950 5320 2044 6143      UDISK SPI SD Ca
    419c:	6472 5220 6165 6564 0d72 530a 6f74 6172     rd Reader..Stora
    41ac:	6567 4d20 6465 7569 3a6d 5320 4950 5320     ge Medium: SPI S
    41bc:	2044 4143 4452 000d 4453 6920 696e 2074     D CARD..SD init 
    41cc:	6166 6c69 6465 0d2e 0000 0000 4453 4320     failed......SD C
    41dc:	7061 6361 7469 3a79 2520 756c 4d20 0d42     apacity: %lu MB.
    41ec:	000a 0000                                   ....

000041f0 <__sf_fake_stderr>:
	...

00004210 <__sf_fake_stdin>:
	...

00004230 <__sf_fake_stdout>:
	...
    4250:	2d23 2b30 0020 0000 6c68 004c 6665 4567     #-0+ ...hlL.efgE
    4260:	4746 0000 3130 3332 3534 3736 3938 4241     FG..0123456789AB
    4270:	4443 4645 0000 0000 3130 3332 3534 3736     CDEF....01234567
    4280:	3938 6261 6463 6665 0000 0000               89abcdef....
